(isrc.bbox.BBoxObj
BBoxObj
p1
(dp2
S'latIds'
p3
(dp4
F41.160141000000003
S'1372638158620000620'
p5
sF41.148702
S'1372659416620000281'
p6
sF41.161895999999999
S'1372667632620000054'
p7
sF41.236893000000002
S'1372660075620000207'
p8
sF41.182586999999998
S'1372662940620000057'
p9
sF41.145614999999999
S'1372663513620000051'
p10
sF41.183289000000002
S'1372659776620000015'
p11
sF41.157989999999998
S'1372665044620000233'
p12
sF41.158341
S'1372656902620000184'
p13
sF41.158692000000002
S'1372667539620000367'
p14
sF41.141708999999999
S'1372666650620000632'
p15
sF41.150727000000003
S'1372664351620000454'
p16
sF41.162399999999998
S'1372646982620000600'
p17
sF41.238495
S'1372663437620000496'
p18
sF41.152706999999999
S'1372663581620000257'
p19
sF41.146118999999999
S'1372667646620000508'
p20
sF41.137802999999998
S'1372662324620000128'
p21
sF41.166809999999998
S'1372663730620000073'
p22
sF41.158493999999997
S'1372667500620000222'
p23
sF41.158844999999999
S'1372662052620000560'
p24
sF41.188203000000001
S'1372654625620000569'
p25
sF41.237198999999997
S'1372650808620000400'
p26
sF41.142915000000002
S'1372636854620000520'
p27
sF41.237037000000001
S'1372660634620000625'
p28
sF41.147325000000002
S'1372666762620000562'
p29
sF41.159348999999999
S'1372660227620000562'
p30
sF41.155794
S'1372665108620000687'
p31
sF41.167817999999997
S'1372658184620000346'
p32
sF41.180543999999998
S'1372642990620000503'
p33
sF41.164262999999998
S'1372648789620000621'
p34
sF41.155946999999998
S'1372662728620000166'
p35
sF41.148333000000001
S'1372666862620000446'
p36
sF41.159033999999998
S'1372649558620000663'
p37
sF41.160356999999998
S'1372662769620000163'
p38
sF41.169375000000002
S'1372664111620000026'
p39
sF41.256827999999999
S'1372665208620000328'
p40
sF41.144427
S'1372655268620000197'
p41
sF41.181750000000001
S'1372662315620000384'
p42
sF41.173785000000002
S'1372664843620000156'
p43
sF41.163417000000003
S'1372663356620000296'
p44
sF41.165469000000002
S'1372668612620000487'
p45
sF41.148837
S'1372655920620000672'
p46
sF41.143545000000003
S'1372668887620000669'
p47
sF41.186511000000003
S'1372637423620000341'
p48
sF41.175089999999997
S'1372649763620000235'
p49
sF41.161563000000001
S'1372660924620000331'
p50
sF41.182605000000002
S'1372663561620000514'
p51
sF41.148989999999998
S'1372655866620000514'
p52
sF41.158008000000002
S'1372646391620000233'
p53
sF41.029055999999997
S'1372664544620000596'
p54
sF41.170031999999999
S'1372651649620000153'
p55
sF41.147136000000003
S'1372665148620000199'
p56
sF41.236713000000002
S'1372654299620000325'
p57
sF41.182406999999998
S'1372646173620000686'
p58
sF41.182758
S'1372663833620000215'
p59
sF41.145786000000001
S'1372642886620000403'
p60
sF41.129505000000002
S'1372641297620000320'
p61
sF41.162543999999997
S'1372660869620000460'
p62
sF41.236865999999999
S'1372649058620000190'
p63
sF41.236578000000002
S'1372661911620000496'
p64
sF41.154254999999999
S'1372666637620000398'
p65
sF41.187815999999998
S'1372637658620000596'
p66
sF41.174945999999998
S'1372665320620000107'
p67
sF41.190939
S'1372664861620000195'
p68
sF41.158664999999999
S'1372639358620000463'
p69
sF41.159016000000001
S'1372666718620000089'
p70
sF41.150700000000001
S'1372640078620000333'
p71
sF41.159367000000003
S'1372643562620000570'
p72
sF41.162723999999997
S'1372666507620000073'
p73
sF41.163426000000001
S'1372639536620000570'
p74
sF41.221088999999999
S'1372664539620000256'
p75
sF41.126454000000003
S'1372649382620000233'
p76
sF41.147145000000002
S'1372662532620000051'
p77
sF41.176152000000002
S'1372651273620000486'
p78
sF41.159168999999999
S'1372654628620000105'
p79
sF41.168187000000003
S'1372639871620000653'
p80
sF41.147297999999999
S'1372650908620000403'
p81
sF41.147649000000001
S'1372664498620000144'
p82
sF41.148000000000003
S'1372661830620000242'
p83
sF41.160024
S'1372662642620000320'
p84
sF41.143040999999997
S'1372665580620000179'
p85
sF41.160375000000002
S'1372668155620000632'
p86
sF41.218038
S'1372664372620000113'
p87
sF41.144094000000003
S'1372644270620000173'
p88
sF41.147450999999997
S'1372666084620000409'
p89
sF41.160879000000001
S'1372663152620000075'
p90
sF41.152563000000001
S'1372664702620000012'
p91
sF41.161230000000003
S'1372666456620000381'
p92
sF41.164586999999997
S'1372665614620000380'
p93
sF41.239584000000001
S'1372666709620000158'
p94
sF41.185277999999997
S'1372647034620000009'
p95
sF41.148305999999998
S'1372662845620000361'
p96
sF41.148657
S'1372658043620000436'
p97
sF41.140340999999999
S'1372641724620000435'
p98
sF41.198354999999999
S'1372649262620000496'
p99
sF41.152715999999998
S'1372667299620000126'
p100
sF41.144399999999997
S'1372653605620000167'
p101
sF41.181722999999998
S'1372658821620000153'
p102
sF41.153418000000002
S'1372644302620000560'
p103
sF41.145453000000003
S'1372646864620000089'
p104
sF41.157125999999998
S'1372666264620000258'
p105
sF41.148809999999997
S'1372649198620000403'
p106
sF41.195151000000003
S'1372663270620000503'
p107
sF41.161535999999998
S'1372660373620000184'
p108
sF41.136947999999997
S'1372665506620000367'
p109
sF41.236533000000001
S'1372654482620000571'
p110
sF41.153768999999997
S'1372653445620000454'
p111
sF41.236884000000003
S'1372655659620000663'
p112
sF41.145957000000003
S'1372665872620000229'
p113
sF41.232275999999999
S'1372656129620000307'
p114
sF41.149664999999999
S'1372638035620000337'
p115
sF41.153723999999997
S'1372645859620000199'
p116
sF41.237388000000003
S'1372665998620000022'
p117
sF41.154426000000001
S'1372652486620000105'
p118
sF41.175117
S'1372649733620000648'
p119
sF41.158484999999999
S'1372666008620000285'
p120
sF41.179175999999998
S'1372665391620000111'
p121
sF41.150871000000002
S'1372649822620000341'
p122
sF41.199866999999998
S'1372669810620000075'
p123
sF41.148522
S'1372664083620000188'
p124
sF41.237541
S'1372659495620000258'
p125
sF41.146262999999998
S'1372638851620000406'
p126
sF41.149278000000002
S'1372641041620000481'
p127
sF41.162436
S'1372638303620000112'
p128
sF41.151024
S'1372658278620000529'
p129
sF41.171363999999997
S'1372641284620000648'
p130
sF41.171714999999999
S'1372661191620000148'
p131
sF41.164101000000002
S'1372645102620000671'
p132
sF41.159492999999998
S'1372666025620000495'
p133
sF41.234841000000003
S'1372660632620000662'
p134
sF41.167313999999998
S'1372657019620000071'
p135
sF41.236415999999998
S'1372647224620000010'
p136
sF41.156289000000001
S'1372665502620000678'
p137
sF41.185647000000003
S'1372663906620000344'
p138
sF41.159996999999997
S'1372642291620000231'
p139
sF41.160347999999999
S'1372667051620000152'
p140
sF41.161050000000003
S'1372648688620000308'
p141
sF41.152734000000002
S'1372667831620000676'
p142
sF41.165109000000001
S'1372666247620000048'
p143
sF41.157144000000002
S'1372664004620000325'
p144
sF41.148828000000002
S'1372664756620000455'
p145
sF41.160851999999998
S'1372649562620000686'
p146
sF41.161554000000002
S'1372653846620000476'
p147
sF41.193917999999996
S'1372649288620000517'
p148
sF41.165613
S'1372667840620000279'
p149
sF41.148980999999999
S'1372656577620000421'
p150
sF41.149332000000001
S'1372641742620000657'
p151
sF41.235650999999997
S'1372659527620000308'
p152
sF41.154623999999998
S'1372655604620000007'
p153
sF41.151015000000001
S'1372664787620000397'
p154
sF41.148296999999999
S'1372652738620000612'
p155
sF41.158152000000001
S'1372666972620000108'
p156
sF41.179194000000003
S'1372667108620000672'
p157
sF41.178086999999998
S'1372637091620000337'
p158
sF41.237208000000003
S'1372659221620000101'
p159
sF41.14593
S'1372662421620000304'
p160
sF41.137613999999999
S'1372660264620000554'
p161
sF41.152670999999998
S'1372665992620000503'
p162
sF41.129649000000001
S'1372653006620000596'
p163
sF41.199686999999997
S'1372646066620000167'
p164
sF41.179698000000002
S'1372657707620000137'
p165
sF41.164461000000003
S'1372646490620000067'
p166
sF41.146082999999997
S'1372664876620000100'
p167
sF41.155101000000002
S'1372653146620000515'
p168
sF41.166773999999997
S'1372656682620000565'
p169
sF41.167124999999999
S'1372666263620000467'
p170
sF41.146380000000001
S'1372644011620000463'
p171
sF41.15916
S'1372659933620000199'
p172
sF41.150843999999999
S'1372656887620000167'
p173
sF41.179850999999999
S'1372664246620000377'
p174
sF41.237513999999997
S'1372647990620000653'
p175
sF41.143230000000003
S'1372666360620000261'
p176
sF41.258204999999997
S'1372643923620000360'
p177
sF41.162273999999996
S'1372665271620000565'
p178
sF41.176296000000001
S'1372663126620000254'
p179
sF41.176647000000003
S'1372662117620000174'
p180
sF41.188670999999999
S'1372663641620000222'
p181
sF41.237271
S'1372649452620000436'
p182
sF41.184764999999999
S'1372663677620000565'
p183
sF41.148144000000002
S'1372667757620000094'
p184
sF41.168483999999999
S'1372665164620000502'
p185
sF41.185971000000002
S'1372655154620000386'
p186
sF41.160870000000003
S'1372664650620000435'
p187
sF41.189877000000003
S'1372639241620000060'
p188
sF41.164577999999999
S'1372638361620000154'
p189
sF41.156261999999998
S'1372664312620000499'
p190
sF41.166215999999999
S'1372649630620000011'
p191
sF41.165280000000003
S'1372665735620000251'
p192
sF41.140448999999997
S'1372648378620000325'
p193
sF41.148648000000001
S'1372665121620000235'
p194
sF41.169690000000003
S'1372664650620000024'
p195
sF41.181362999999997
S'1372665786620000578'
p196
sF41.181713999999999
S'1372639135620000570'
p197
sF41.173397999999999
S'1372657945620000398'
p198
sF41.148800999999999
S'1372659194620000189'
p199
sF41.149152000000001
S'1372665768620000038'
p200
sF41.161175999999998
S'1372649085620000569'
p201
sF41.153562000000001
S'1372641991620000231'
p202
sF41.211576000000001
S'1372647797620000005'
p203
sF41.157269999999997
S'1372664390620000051'
p204
sF41.137632000000004
S'1372659445620000076'
p205
sF41.149304999999998
S'1372663518620000286'
p206
sF41.190381000000002
S'1372642438620000657'
p207
sF41.162382000000001
S'1372664679620000186'
p208
sF41.15457
S'1372657987620000623'
p209
sF41.162733000000003
S'1372665210620000515'
p210
sF41.166089999999997
S'1372647382620000686'
p211
sF41.162309999999998
S'1372657730620000632'
p212
sF41.236829999999998
S'1372657859620000012'
p213
sF41.154218999999998
S'1372664892620000663'
p214
sF41.237532000000002
S'1372649751620000178'
p215
sF41.163237000000002
S'1372639521620000403'
p216
sF41.129621999999998
S'1372656963620000432'
p217
sF41.145561000000001
S'1372662562620000618'
p218
sF41.177303999999999
S'1372651200620000011'
p219
sF41.142347999999998
S'1372664494620000605'
p220
sF41.163741000000002
S'1372649505620000005'
p221
sF41.184080999999999
S'1372645157620000341'
p222
sF41.155776000000003
S'1372665170620000446'
p223
sF41.184783000000003
S'1372653618620000197'
p224
sF41.159483999999999
S'1372664868620000074'
p225
sF41.143203
S'1372651253620000565'
p226
sF41.164596000000003
S'1372666325620000535'
p227
sF41.17662
S'1372656508620000458'
p228
sF41.169006000000003
S'1372653624620000435'
p229
sF41.180678999999998
S'1372647232620000173'
p230
sF41.152374000000002
S'1372650904620000307'
p231
sF41.156433
S'1372660271620000344'
p232
sF41.148116999999999
S'1372666885620000497'
p233
sF41.237189999999998
S'1372653635620000665'
p234
sF41.123168999999997
S'1372666556620000518'
p235
sF41.189498999999998
S'1372638560620000308'
p236
sF41.161194000000002
S'1372664922620000289'
p237
sF41.181885000000001
S'1372659163620000578'
p238
sF41.150438999999999
S'1372640499620000596'
p239
sF41.148620999999999
S'1372663356620000307'
p240
sF41.148972000000001
S'1372663170620000391'
p241
sF41.153733000000003
S'1372641088620000574'
p242
sF41.154822000000003
S'1372664906620000105'
p243
sF41.157089999999997
S'1372666721620000057'
p244
sF41.149827000000002
S'1372666107620000387'
p245
sF41.182920000000003
S'1372650650620000625'
p246
sF41.153534999999998
S'1372649313620000231'
p247
sF41.236848000000002
S'1372656587620000337'
p248
sF41.153886
S'1372665081620000671'
p249
sF41.154237000000002
S'1372655583620000569'
p250
sF41.165937
S'1372648677620000492'
p251
sF41.145921000000001
S'1372662598620000179'
p252
sF41.232590999999999
S'1372646663620000473'
p253
sF41.158647000000002
S'1372652789620000492'
p254
sF41.150682000000003
S'1372644253620000574'
p255
sF41.237000999999999
S'1372662111620000267'
p256
sF41.237352000000001
S'1372656138620000496'
p257
sF41.163057000000002
S'1372660956620000446'
p258
sF41.146073999999999
S'1372664139620000372'
p259
sF41.155092000000003
S'1372666199620000272'
p260
sF41.146776000000003
S'1372650128620000423'
p261
sF41.156072999999999
S'1372648996620000657'
p262
sF41.181426000000002
S'1372657174620000197'
p263
sF41.204943
S'1372660434620000128'
p264
sF41.150987999999998
S'1372664210620000192'
p265
sF41.142671999999997
S'1372638481620000403'
p266
sF41.163362999999997
S'1372669161620000195'
p267
sF41.126742
S'1372665808620000623'
p268
sF41.147784000000001
S'1372666523620000431'
p269
sF41.164217999999998
S'1372637715620000398'
p270
sF41.135913000000002
S'1372638616620000672'
p271
sF41.237144999999998
S'1372653162620000621'
p272
sF41.177646000000003
S'1372661557620000229'
p273
sF41.094684000000001
S'1372657701620000280'
p274
sF41.161014000000002
S'1372665614620000009'
p275
sF41.152698000000001
S'1372650494620000686'
p276
sF41.182056000000003
S'1372637453620000648'
p277
sF41.162849999999999
S'1372667113620000359'
p278
sF41.169483
S'1372665555620000664'
p279
sF41.236164000000002
S'1372664244620000320'
p280
sF41.161869000000003
S'1372646567620000520'
p281
sF41.182560000000002
S'1372668171620000678'
p282
sF41.231907
S'1372646292620000101'
p283
sF41.148944999999998
S'1372659204620000514'
p284
sF41.140557000000001
S'1372667754620000436'
p285
sF41.157963000000002
S'1372666591620000579'
p286
sF41.178654000000002
S'1372663397620000331'
p287
sF41.174045999999997
S'1372642168620000570'
p288
sF41.145741000000001
S'1372666958620000281'
p289
sF41.166432
S'1372659472620000596'
p290
sF41.129460000000002
S'1372659928620000272'
p291
sF41.236820999999999
S'1372666258620000049'
p292
sF41.153858999999997
S'1372646923620000472'
p293
sF41.182865999999997
S'1372660990620000901'
p294
sF41.237523000000003
S'1372658347620000024'
p295
sF41.137577999999998
S'1372656341620000286'
p296
sF41.150655
S'1372664892620000009'
p297
sF41.162678999999997
S'1372664500620000546'
p298
sF41.154362999999996
S'1372636956620000167'
p299
sF41.138784000000001
S'1372637084620000285'
p300
sF41.148090000000003
S'1372668173620000129'
p301
sF41.142311999999997
S'1372664492620000410'
p302
sF41.172201000000001
S'1372661504620000470'
p303
sF41.155920000000002
S'1372638502620000320'
p304
sF41.167943999999999
S'1372650516620000307'
p305
sF41.159627999999998
S'1372667894620000589'
p306
sF41.168295000000001
S'1372638595620000233'
p307
sF41.160330000000002
S'1372654295620000455'
p308
sF41.157342
S'1372664324620000633'
p309
sF41.201360999999999
S'1372639441620000012'
p310
sF41.184728999999997
S'1372650962620000503'
p311
sF41.164740000000002
S'1372641690620000372'
p312
sF41.168799
S'1372649121620000486'
p313
sF41.247152999999997
S'1372667599620000330'
p314
sF41.161185000000003
S'1372664272620000329'
p315
sF41.181525000000001
S'1372663582620000468'
p316
sF41.164892999999999
S'1372666820620000446'
p317
sF41.148963000000002
S'1372650696620000320'
p318
sF41.177970000000002
S'1372668098620000434'
p319
sF41.161338000000001
S'1372666538620000492'
p320
sF41.170005000000003
S'1372664591620000049'
p321
sF41.153022
S'1372666681620000421'
p322
sF41.172956999999997
S'1372661638620000161'
p323
sF41.145408000000003
S'1372663787620000021'
p324
sF41.148764999999997
S'1372655792620000386'
p325
sF41.157783000000002
S'1372659280620000026'
p326
sF41.141151000000001
S'1372663327620000230'
p327
sF41.135984999999998
S'1372660781620000517'
p328
sF41.236488000000001
S'1372648756620000481'
p329
sF41.182181999999997
S'1372638513620000473'
p330
sF41.236839000000003
S'1372656387620000571'
p331
sF41.182532999999999
S'1372659571620000651'
p332
sF41.182884000000001
S'1372658465620000653'
p333
sF41.174568000000001
S'1372661992620000039'
p334
sF41.158638000000003
S'1372640356620000657'
p335
sF41.236289999999997
S'1372653132620000239'
p336
sF41.236640999999999
S'1372649178620000153'
p337
sF41.236992000000001
S'1372647704620000476'
p338
sF41.165343
S'1372666463620000453'
p339
sF41.154732000000003
S'1372637728620000671'
p340
sF41.129432999999999
S'1372667330620000450'
p341
sF41.158791000000001
S'1372659148620000009'
p342
sF41.159142000000003
S'1372665742620000352'
p343
sF41.150826000000002
S'1372664221620000077'
p344
sF41.171165999999999
S'1372665582620000267'
p345
sF41.237496
S'1372648838620000398'
p346
sF41.163201000000001
S'1372666132620000525'
p347
sF41.134545000000003
S'1372644311620000492'
p348
sF41.219037
S'1372646810620000672'
p349
sF41.148710999999999
S'1372652704620000372'
p350
sF41.237549999999999
S'1372650626620000665'
p351
sF41.161085999999997
S'1372652423620000620'
p352
sF41.179634999999998
S'1372663164620000542'
p353
sF41.237648999999998
S'1372647730620000534'
p354
sF41.147424000000001
S'1372660672620000196'
p355
sF41.167763999999998
S'1372659729620000038'
p356
sF41.147775000000003
S'1372637247620000067'
p357
sF41.151834000000001
S'1372651570620000073'
p358
sF41.164209
S'1372642706620000653'
p359
sF41.184548999999997
S'1372666255620000307'
p360
sF41.154533999999998
S'1372661798620000525'
p361
sF41.149997999999997
S'1372641197620000653'
p362
sF41.160302999999999
S'1372667871620000152'
p363
sF41.151986999999998
S'1372637369620000381'
p364
sF41.172677999999998
S'1372661871620000507'
p365
sF41.144373000000002
S'1372668359620000397'
p366
sF41.164676999999998
S'1372666912620000005'
p367
sF41.148783000000002
S'1372641149620000235'
p368
sF41.177790000000002
S'1372665061620000050'
p369
sF41.152490999999998
S'1372665343620000226'
p370
sF41.173181999999997
S'1372661908620000398'
p371
sF41.116221000000003
S'1372645298620000307'
p372
sF41.127893999999998
S'1372660878620000180'
p373
sF41.145228000000003
S'1372666413620000454'
p374
sF41.139702
S'1372664648620000517'
p375
sF41.162607000000001
S'1372659809620000188'
p376
sF41.096744999999999
S'1372640610620000161'
p377
sF41.152994999999997
S'1372666484620000560'
p378
sF41.153345999999999
S'1372643656620000492'
p379
sF41.162013000000002
S'1372640943620000596'
p380
sF41.211359999999999
S'1372662840620000005'
p381
sF41.157404999999997
S'1372662823620000515'
p382
sF41.177762999999999
S'1372666207620000633'
p383
sF41.129100000000001
S'1372656327620000435'
p384
sF41.151870000000002
S'1372653466620000403'
p385
sF41.236812
S'1372656964620000549'
p386
sF41.133861000000003
S'1372644436620000112'
p387
sF41.145885
S'1372658600620000239'
p388
sF41.146442999999998
S'1372638504620000600'
p389
sF41.158259999999999
S'1372638151620000231'
p390
sF41.236964999999998
S'1372646627620000503'
p391
sF41.200344000000001
S'1372660832620000077'
p392
sF41.155515000000001
S'1372665431620000344'
p393
sF41.151150000000001
S'1372665708620000118'
p394
sF41.143185000000003
S'1372665422620000598'
p395
sF41.163876000000002
S'1372650781620000621'
p396
sF41.155560000000001
S'1372667799620000050'
p397
sF41.147595000000003
S'1372665131620000376'
p398
sF41.105663999999997
S'1372666634620000391'
p399
sF41.143338
S'1372649918620000325'
p400
sF41.163677999999997
S'1372660381620000255'
p401
sF41.155361999999997
S'1372669911620000455'
p402
sF41.169141000000003
S'1372636896620000360'
p403
sF41.144193000000001
S'1372663640620000319'
p404
sF41.237406
S'1372658151620000286'
p405
sF41.222195999999997
S'1372657785620000406'
p406
sF41.147900999999997
S'1372664352620000648'
p407
sF41.176907999999997
S'1372666645620000249'
p408
sF41.168591999999997
S'1372661186620000138'
p409
sF41.140287000000001
S'1372666362620000338'
p410
sF41.140638000000003
S'1372668618620000105'
p411
sF41.160978
S'1372651706620000458'
p412
sF41.161329000000002
S'1372667178620000685'
p413
sF41.136381
S'1372658147620000285'
p414
sF41.200785000000003
S'1372648061620000406'
p415
sF41.148755999999999
S'1372656016620000570'
p416
sF41.157774000000003
S'1372663193620000100'
p417
sF41.157918000000002
S'1372666777620000128'
p418
sF41.161833000000001
S'1372651101620000197'
p419
sF41.179608000000002
S'1372666869620000331'
p420
sF41.157575999999999
S'1372641453620000010'
p421
sF41.140943999999998
S'1372642569620000004'
p422
sF41.158278000000003
S'1372663424620000432'
p423
sF41.169950999999998
S'1372647636620000621'
p424
sF41.161634999999997
S'1372662206620000068'
p425
sF41.236632
S'1372653126620000450'
p426
sF41.153669999999998
S'1372643960620000545'
p427
sF41.182676999999998
S'1372661636620000073'
p428
sF41.166044999999997
S'1372661219620000674'
p429
sF41.149763999999998
S'1372662631620000621'
p430
sF41.178770999999998
S'1372643415620000653'
p431
sF41.133482999999998
S'1372651775620000231'
p432
sF41.162489999999998
S'1372645583620000007'
p433
sF41.237487000000002
S'1372657568620000391'
p434
sF41.163192000000002
S'1372655153620000280'
p435
sF41.166899999999998
S'1372664817620000197'
p436
sF41.158583999999998
S'1372666901620000138'
p437
sF41.150888999999999
S'1372668256620000304'
p438
sF41.171309999999998
S'1372664673620000189'
p439
sF41.237639999999999
S'1372649921620000367'
p440
sF41.161752
S'1372668127620000076'
p441
sF41.237045999999999
S'1372651127620000686'
p442
sF41.155731000000003
S'1372661291620000131'
p443
sF41.155982999999999
S'1372647874620000195'
p444
sF41.151474
S'1372665577620000093'
p445
sF41.209136999999998
S'1372648898620000128'
p446
sF41.172516000000002
S'1372666546620000047'
p447
sF41.147216999999998
S'1372650050620000534'
p448
sF41.148819000000003
S'1372665032620000004'
p449
sF41.147568
S'1372664196620000285'
p450
sF41.157603000000002
S'1372662261620000031'
p451
sF41.160294
S'1372648539620000632'
p452
sF41.152059000000001
S'1372638156620000451'
p453
sF41.144364000000003
S'1372656288620000201'
p454
sF41.147720999999997
S'1372667653620000268'
p455
sF41.179383000000001
S'1372666157620000245'
p456
sF41.148774000000003
S'1372664591620000251'
p457
sF41.184189000000003
S'1372665154620000460'
p458
sF41.190156000000002
S'1372651455620000436'
p459
sF41.164856999999998
S'1372663720620000126'
p460
sF41.169978
S'1372646651620000688'
p461
sF41.148224999999996
S'1372648404620000503'
p462
sF41.148575999999998
S'1372649231620000600'
p463
sF41.148927
S'1372652681620000067'
p464
sF41.157594000000003
S'1372667009620000607'
p465
sF41.169266999999998
S'1372650838620000398'
p466
sF41.140962000000002
S'1372665259620000680'
p467
sF41.152634999999997
S'1372666325620000621'
p468
sF41.14179
S'1372662023620000367'
p469
sF41.236659000000003
S'1372663060620000271'
p470
sF41.158098000000003
S'1372667236620000104'
p471
sF41.141114999999999
S'1372658507620000341'
p472
sF41.168025
S'1372650938620000305'
p473
sF41.185881000000002
S'1372665035620000386'
p474
sF41.145173999999997
S'1372666656620000481'
p475
sF41.145524999999999
S'1372663204620000577'
p476
sF41.203187999999997
S'1372639096620000231'
p477
sF41.146227000000003
S'1372652291620000672'
p478
sF41.157899999999998
S'1372642071620000305'
p479
sF41.129595000000002
S'1372667077620000230'
p480
sF41.141618999999999
S'1372640577620000632'
p481
sF41.237478000000003
S'1372650298620000534'
p482
sF41.179644000000003
S'1372664485620000400'
p483
sF41.237307000000001
S'1372667432620000562'
p484
sF41.180283000000003
S'1372661941620000021'
p485
sF41.124366000000002
S'1372641068620000178'
p486
sF41.130450000000003
S'1372663362620000142'
p487
sF41.159457000000003
S'1372667482620000199'
p488
sF41.151141000000003
S'1372667868620000341'
p489
sF41.134157999999999
S'1372637905620000320'
p490
sF41.146884
S'1372663409620000640'
p491
sF41.147235000000002
S'1372661946620000326'
p492
sF41.180867999999997
S'1372642546620000458'
p493
sF41.159610000000001
S'1372638902620000372'
p494
sF41.163317999999997
S'1372666913620000408'
p495
sF41.163668999999999
S'1372663304620000153'
p496
sF41.147036999999997
S'1372663203620000131'
p497
sF41.147739000000001
S'1372663910620000359'
p498
sF41.196734999999997
S'1372662641620000120'
p499
sF41.152149000000001
S'1372646650620000569'
p500
sF41.152500000000003
S'1372665253620000588'
p501
sF41.144184000000003
S'1372638165620000435'
p502
sF41.164875000000002
S'1372669784620000455'
p503
sF41.147891999999999
S'1372662148620000534'
p504
sF41.148594000000003
S'1372646454620000574'
p505
sF41.168934
S'1372648701620000333'
p506
sF41.162165999999999
S'1372666502620000294'
p507
sF41.144337
S'1372668303620000256'
p508
sF41.191056000000003
S'1372656348620000010'
p509
sF41.148395999999998
S'1372646917620000190'
p510
sF41.148747
S'1372665033620000381'
p511
sF41.171301
S'1372662383620000687'
p512
sF41.169789000000002
S'1372667405620000598'
p513
sF41.181812999999998
S'1372637254620000657'
p514
sF41.157215999999998
S'1372662815620000089'
p515
sF41.148899999999998
S'1372666304620000136'
p516
sF41.252552999999999
S'1372660658620000129'
p517
sF41.160212999999999
S'1372667083620000051'
p518
sF41.161994999999997
S'1372653388620000616'
p519
sF41.190984
S'1372638266620000611'
p520
sF41.145344999999999
S'1372636853620000380'
p521
sF41.154012000000002
S'1372662439620000071'
p522
sF41.145696000000001
S'1372667264620000557'
p523
sF41.146047000000003
S'1372658372620000331'
p524
sF41.157719999999998
S'1372669271620000653'
p525
sF41.236424999999997
S'1372665966620000361'
p526
sF41.170797
S'1372661480620000421'
p527
sF41.237127000000001
S'1372662193620000451'
p528
sF41.161031999999999
S'1372656656620000280'
p529
sF41.154516000000001
S'1372658138620000397'
p530
sF41.1462
S'1372652978620000167'
p531
sF41.166891
S'1372639635620000178'
p532
sF41.142645000000002
S'1372648526620000011'
p533
sF41.097357000000002
S'1372639535620000161'
p534
sF41.146704
S'1372666428620000254'
p535
sF41.160708
S'1372666377620000001'
p536
sF41.179769999999998
S'1372657632620000046'
p537
sF41.164974000000001
S'1372657008620000280'
p538
sF41.237459999999999
S'1372660764620000065'
p539
sF41.180472000000002
S'1372655154620000196'
p540
sF41.163488999999998
S'1372666070620000151'
p541
sF41.147207999999999
S'1372664642620000272'
p542
sF41.155875000000002
S'1372662071620000662'
p543
sF41.147559000000001
S'1372666020620000138'
p544
sF41.167898999999998
S'1372639960620000309'
p545
sF41.159582999999998
S'1372656183620000195'
p546
sF41.160285000000002
S'1372637754620000007'
p547
sF41.143301999999998
S'1372662088620000076'
p548
sF41.180976000000001
S'1372642896620000403'
p549
sF41.185692000000003
S'1372665524620000542'
p550
sF41.164695000000002
S'1372666367620000137'
p551
sF41.213690999999997
S'1372662074620000279'
p552
sF41.176718999999999
S'1372665366620000268'
p553
sF41.160086999999997
S'1372641858620000154'
p554
sF41.161140000000003
S'1372638161620000423'
p555
sF41.173515000000002
S'1372663703620000067'
p556
sF41.236542
S'1372659724620000648'
p557
sF41.177222999999998
S'1372657135620000229'
p558
sF41.160716999999998
S'1372636965620000231'
p559
sF41.169257999999999
S'1372637482620000005'
p560
sF41.157944999999998
S'1372666929620000315'
p561
sF41.152284000000002
S'1372666643620000470'
p562
sF41.174019000000001
S'1372667454620000352'
p563
sF41.157035999999998
S'1372644655620000520'
p564
sF41.137047000000003
S'1372663871620000085'
p565
sF41.146740000000001
S'1372661172620000409'
p566
sF41.178429000000001
S'1372645158620000015'
p567
sF41.180084999999998
S'1372641454620000195'
p568
sF41.168357999999998
S'1372664761620000421'
p569
sF41.157539999999997
S'1372637721620000678'
p570
sF41.181759
S'1372652447620000517'
p571
sF41.236595999999999
S'1372645400620000435'
p572
sF41.170968000000002
S'1372666537620000692'
p573
sF41.170670999999999
S'1372651688620000173'
p574
sF41.164794000000001
S'1372648345620000367'
p575
sF41.158394999999999
S'1372664146620000682'
p576
sF41.187401999999999
S'1372664006620000662'
p577
sF41.237099999999998
S'1372660240620000480'
p578
sF41.208444
S'1372661741620000120'
p579
sF41.142816000000003
S'1372637210620000456'
p580
sF41.154488999999998
S'1372636858620000589'
p581
sF41.146172999999997
S'1372664579620000524'
p582
sF41.155191000000002
S'1372661674620000086'
p583
sF41.166863999999997
S'1372667938620000480'
p584
sF41.146875000000001
S'1372662443620000341'
p585
sF41.147226000000003
S'1372665493620000089'
p586
sF41.150582999999997
S'1372650181620000560'
p587
sF41.179589999999997
S'1372661020620000058'
p588
sF41.188608000000002
S'1372641721620000686'
p589
sF41.163308999999998
S'1372637274620000403'
p590
sF41.16366
S'1372651427620000569'
p591
sF41.146676999999997
S'1372665404620000184'
p592
sF41.238657000000003
S'1372653597620000477'
p593
sF41.147027999999999
S'1372664966620000304'
p594
sF41.151086999999997
S'1372668819620000473'
p595
sF41.172831000000002
S'1372637926620000173'
p596
sF41.131953000000003
S'1372640399620000320'
p597
sF41.180948999999998
S'1372640331620000496'
p598
sF41.159106000000001
S'1372649782620000671'
p599
sF41.164316999999997
S'1372664532620000669'
p600
sF41.164667999999999
S'1372646419620000372'
p601
sF41.148035999999998
S'1372664321620000440'
p602
sF41.140773000000003
S'1372667388620000397'
p603
sF41.144480999999999
S'1372663377620000692'
p604
sF41.157207
S'1372665287620000341'
p605
sF41.148890999999999
S'1372666248620000640'
p606
sF41.149242000000001
S'1372669436620000285'
p607
sF41.178600000000003
S'1372639181620000089'
p608
sF41.148063
S'1372665331620000473'
p609
sF41.157359999999997
S'1372662567620000570'
p610
sF41.178753
S'1372663921620000470'
p611
sF41.179104000000002
S'1372657105620000152'
p612
sF41.237118000000002
S'1372648236620000307'
p613
sF41.145488999999998
S'1372639973620000686'
p614
sF41.197409999999998
S'1372660942620000060'
p615
sF41.154507000000002
S'1372641048620000560'
p616
sF41.166882000000001
S'1372649081620000171'
p617
sF41.149898999999998
S'1372664630620000076'
p618
sF41.084622000000003
S'1372645240620000577'
p619
sF41.216931000000002
S'1372665008620000333'
p620
sF41.142636000000003
S'1372638793620000571'
p621
sF41.154308999999998
S'1372647564620000454'
p622
sF41.163327000000002
S'1372665321620000192'
p623
sF41.239620000000002
S'1372665032620000541'
p624
sF41.150753999999999
S'1372668142620000058'
p625
sF41.188428000000002
S'1372665929620000682'
p626
sF41.237423999999997
S'1372651679620000520'
p627
sF41.109552000000001
S'1372648417620000015'
p628
sF41.147199000000001
S'1372639875620000009'
p629
sF41.147550000000003
S'1372666109620000508'
p630
sF41.159222999999997
S'1372663792620000476'
p631
sF41.150906999999997
S'1372666772620000472'
p632
sF41.180264999999999
S'1372665435620000159'
p633
sF41.180616000000001
S'1372665600620000406'
p634
sF41.159726999999997
S'1372665068620000247'
p635
sF41.152113
S'1372663711620000099'
p636
sF41.18112
S'1372654224620000451'
p637
sF41.164487999999999
S'1372661716620000195'
p638
sF41.173506000000003
S'1372661951620000589'
p639
sF41.148206999999999
S'1372665804620000688'
p640
sF41.148558000000001
S'1372650870620000688'
p641
sF41.148909000000003
S'1372657532620000073'
p642
sF41.152265999999997
S'1372664417620000180'
p643
sF41.161284000000002
S'1372648129620000199'
p644
sF41.152968000000001
S'1372667190620000256'
p645
sF41.153319000000003
S'1372661321620000397'
p646
sF41.156675999999997
S'1372644996620000620'
p647
sF41.148359999999997
S'1372667190620000100'
p648
sF41.157378000000001
S'1372665280620000674'
p649
sF41.169401999999998
S'1372664533620000607'
p650
sF41.178420000000003
S'1372647114620000013'
p651
sF41.152769999999997
S'1372669604620000697'
p652
sF41.236434000000003
S'1372655112620000086'
p653
sF41.174514000000002
S'1372639364620000015'
p654
sF41.186186999999997
S'1372665547620000516'
p655
sF41.236938000000002
S'1372649558620000154'
p656
sF41.165999999999997
S'1372643424620000571'
p657
sF41.181767999999998
S'1372662392620000674'
p658
sF41.150421000000001
S'1372665082620000039'
p659
sF41.150772000000003
S'1372663789620000247'
p660
sF41.237090999999999
S'1372650736620000012'
p661
sF41.191451999999998
S'1372665476620000601'
p662
sF41.163147000000002
S'1372639558620000005'
p663
sF41.129531999999998
S'1372655979620000502'
p664
sF41.146866000000003
S'1372638641620000520'
p665
sF41.159691000000002
S'1372649947620000360'
p666
sF41.15889
S'1372667656620000487'
p667
sF41.164884000000001
S'1372641600620000612'
p668
sF41.179580999999999
S'1372664734620000198'
p669
sF41.237594999999999
S'1372659423620000351'
p670
sF41.154632999999997
S'1372642204620000596'
p671
sF41.154983999999999
S'1372665577620000027'
p672
sF41.147019
S'1372643618620000463'
p673
sF41.236874999999998
S'1372656241620000539'
p674
sF41.159393999999999
S'1372660161620000403'
p675
sF41.151077999999998
S'1372640068620000616'
p676
sF41.145363000000003
S'1372660608620000235'
p677
sF41.160096000000003
S'1372660017620000621'
p678
sF41.143113
S'1372667249620000113'
p679
sF41.164155000000001
S'1372640550620000233'
p680
sF41.147171999999998
S'1372663830620000190'
p681
sF41.164506000000003
S'1372666326620000680'
p682
sF41.147874000000002
S'1372649185620000360'
p683
sF41.180588999999998
S'1372664727620000604'
p684
sF41.237693999999998
S'1372652519620000235'
p685
sF41.077989000000002
S'1372661205620000675'
p686
sF41.193314999999998
S'1372638451620000621'
p687
sF41.236559999999997
S'1372664815620000086'
p688
sF41.156694000000002
S'1372639212620000497'
p689
sF41.185701000000002
S'1372660955620000333'
p690
sF41.137272000000003
S'1372639475620000199'
p691
sF41.148729000000003
S'1372667083620000517'
p692
sF41.152788000000001
S'1372662491620000137'
p693
sF41.185502999999997
S'1372663462620000602'
p694
sF41.148530999999998
S'1372657272620000304'
p695
sF41.148882
S'1372669864620000050'
p696
sF41.186556000000003
S'1372663167620000288'
p697
sF41.135562
S'1372637915620000344'
p698
sF41.161608000000001
S'1372644476620000307'
p699
sF41.211306
S'1372644406620000486'
p700
sF41.157350999999998
S'1372636875620000233'
p701
sF41.158053000000002
S'1372660217620000671'
p702
sF41.177934
S'1372663500620000007'
p703
sF41.180382000000002
S'1372657325620000329'
p704
sF41.145128999999997
S'1372665899620000363'
p705
sF41.182803
S'1372665383620000577'
p706
sF41.183154000000002
S'1372662385620000408'
p707
sF41.175189000000003
S'1372665212620000434'
p708
sF41.187213
S'1372666864620000123'
p709
sF41.158557000000002
S'1372664951620000554'
p710
sF41.179248000000001
S'1372656357620000308'
p711
sF41.162264999999998
S'1372637343620000571'
p712
sF41.179599000000003
S'1372665781620000153'
p713
sF41.171283000000003
S'1372663110620000484'
p714
sF41.154299999999999
S'1372667720620000529'
p715
sF41.162967000000002
S'1372667629620000674'
p716
sF41.237712000000002
S'1372665080620000345'
p717
sF41.175693000000003
S'1372666301620000142'
p718
sF41.150042999999997
S'1372657150620000534'
p719
sF41.145632999999997
S'1372644692620000173'
p720
sF41.237414999999999
S'1372651034620000403'
p721
sF41.154452999999997
S'1372644281620000320'
p722
sF41.237613000000003
S'1372653015620000128'
p723
sF41.146839
S'1372640555620000235'
p724
sF41.147190000000002
S'1372661942620000664'
p725
sF41.158862999999997
S'1372641886620000089'
p726
sF41.159213999999999
S'1372661209620000296'
p727
sF41.234211000000002
S'1372657983620000190'
p728
sF41.188572000000001
S'1372660598620000256'
p729
sF41.237918999999998
S'1372649477620000333'
p730
sF41.147694000000001
S'1372663271620000454'
p731
sF41.148045000000003
S'1372668778620000579'
p732
sF41.152455000000003
S'1372664401620000443'
p733
sF41.155811999999997
S'1372662045620000049'
p734
sF41.164830000000002
S'1372662959620000499'
p735
sF41.156514000000001
S'1372665485620000617'
p736
sF41.160221999999997
S'1372668434620000458'
p737
sF41.235570000000003
S'1372654856620000901'
p738
sF41.181263999999999
S'1372643825620000612'
p739
sF41.173299
S'1372664255620000540'
p740
sF41.164982999999999
S'1372637230620000503'
p741
sF41.164721999999998
S'1372661443620000565'
p742
sF41.157018000000001
S'1372667387620000400'
p743
sF41.161769999999997
S'1372666843620000578'
p744
sF41.157369000000003
S'1372667305620000006'
p745
sF41.144444999999997
S'1372653472620000403'
p746
sF41.145147000000001
S'1372667297620000012'
p747
sF41.157170999999998
S'1372662840620000360'
p748
sF41.148854999999998
S'1372666150620000180'
p749
sF41.157522
S'1372637610620000497'
p750
sF41.149908000000003
S'1372665121620000308'
p751
sF41.170599000000003
S'1372637072620000367'
p752
sF41.162283000000002
S'1372662403620000001'
p753
sF41.236929000000003
S'1372646478620000398'
p754
sF41.165990999999998
S'1372661617620000381'
p755
sF41.137686000000002
S'1372668264620000113'
p756
sF41.166693000000002
S'1372669904620000268'
p757
sF41.178365999999997
S'1372638137620000325'
p758
sF41.187033
S'1372638021620000256'
p759
sF41.179068000000001
S'1372663750620000623'
p760
sF41.162084999999998
S'1372666450620000384'
p761
sF41.237082000000001
S'1372659738620000152'
p762
sF41.237433000000003
S'1372654423620000620'
p763
sF41.177213999999999
S'1372637397620000190'
p764
sF41.146371000000002
S'1372662508620000050'
p765
sF41.146155
S'1372651225620000201'
p766
sF41.129522999999999
S'1372656094620000463'
p767
sF41.130225000000003
S'1372660168620000403'
p768
sF41.166594000000003
S'1372661494620000166'
p769
sF41.237234999999998
S'1372653088620000154'
p770
sF41.142600000000002
S'1372637345620000589'
p771
sF41.237937000000002
S'1372649271620000450'
p772
sF41.183982
S'1372641278620000009'
p773
sF41.155622999999999
S'1372667141620000380'
p774
sF41.172111000000001
S'1372656695620000042'
p775
sF41.164146000000002
S'1372666624620000451'
p776
sF41.147162999999999
S'1372664419620000403'
p777
sF41.147514000000001
S'1372649008620000560'
p778
sF41.238242999999997
S'1372650914620000434'
p779
sF41.152275000000003
S'1372667223620000499'
p780
sF41.162337000000001
S'1372666748620000675'
p781
sF41.259284999999998
S'1372664866620000901'
p782
sF41.147666999999998
S'1372660585620000015'
p783
sF41.148018
S'1372668731620000363'
p784
sF41.148369000000002
S'1372660022620000570'
p785
sF41.168232000000003
S'1372639092620000233'
p786
sF41.160392999999999
S'1372666857620000363'
p787
sF41.160744000000001
S'1372661134620000233'
p788
sF41.152779000000002
S'1372652369620000423'
p789
sF41.165928000000001
S'1372665436620000458'
p790
sF41.148873000000002
S'1372662417620000901'
p791
sF41.177880000000002
S'1372663487620000268'
p792
sF41.152580999999998
S'1372665292620000257'
p793
sF41.190606000000002
S'1372642553620000167'
p794
sF41.145318000000003
S'1372654879620000329'
p795
sF41.148674999999997
S'1372665462620000507'
p796
sF41.190407999999998
S'1372663112620000060'
p797
sF41.153435999999999
S'1372662041620000607'
p798
sF41.162103000000002
S'1372668354620000245'
p799
sF41.137506000000002
S'1372659710620000179'
p800
sF41.149529999999999
S'1372669337620000074'
p801
sF41.149881000000001
S'1372660088620000515'
p802
sF41.178888000000001
S'1372666817620000178'
p803
sF41.236550999999999
S'1372656105620000151'
p804
sF41.153588999999997
S'1372647913620000307'
p805
sF41.236902000000001
S'1372649868620000653'
p806
sF41.153939999999999
S'1372641749620000571'
p807
sF41.167368000000003
S'1372666306620000014'
p808
sF41.159052000000003
S'1372643195620000372'
p809
sF41.237054999999998
S'1372652766620000534'
p810
sF41.162759999999999
S'1372652856620000367'
p811
sF41.154795
S'1372668670620000697'
p812
sF41.236784999999998
S'1372651870620000007'
p813
sF41.179544999999997
S'1372665088620000186'
p814
sF41.237136
S'1372649124620000480'
p815
sF41.237558999999997
S'1372647050620000496'
p816
sF41.238261000000001
S'1372660572620000030'
p817
sF41.163966000000002
S'1372663807620000649'
p818
sF41.175638999999997
S'1372663364620000058'
p819
sF41.096412000000001
S'1372639848620000424'
p820
sF41.179940999999999
S'1372664072620000114'
p821
sF41.147685000000003
S'1372664039620000621'
p822
sF41.171508000000003
S'1372665128620000104'
p823
sF41.180751000000001
S'1372663355620000436'
p824
sF41.184809999999999
S'1372638342620000011'
p825
sF41.144705999999999
S'1372644642620000305'
p826
sF41.168880000000001
S'1372662153620000351'
p827
sF41.144634000000003
S'1372658129620000397'
p828
sF41.118983999999998
S'1372661112620000116'
p829
sF41.169671999999998
S'1372664607620000626'
p830
sF41.129576999999998
S'1372665128620000337'
p831
sF41.149044000000004
S'1372666658620000440'
p832
sF41.132061
S'1372660605620000359'
p833
sF41.189723999999998
S'1372664045620000045'
p834
sF41.154767999999997
S'1372645426620000454'
p835
sF41.144787000000001
S'1372659411620000429'
p836
sF41.148845999999999
S'1372662283620000349'
p837
sF41.140529999999998
S'1372636951620000320'
p838
sF41.161572
S'1372665814620000436'
p839
sF41.158368000000003
S'1372664499620000562'
p840
sF41.147846999999999
S'1372661123620000484'
p841
sF41.176485
S'1372644458620000450'
p842
sF41.147640000000003
S'1372666999620000039'
p843
sF41.162778000000003
S'1372662481620000038'
p844
sF41.137478999999999
S'1372659442620000665'
p845
sF41.187879000000002
S'1372665674620000021'
p846
sF41.254209000000003
S'1372638700620000665'
p847
sF41.154263999999998
S'1372644810620000004'
p848
sF41.237577000000002
S'1372657891620000534'
p849
sF41.154615
S'1372653462620000101'
p850
sF41.146298999999999
S'1372664122620000472'
p851
sF41.154966000000002
S'1372662497620000152'
p852
sF41.146650000000001
S'1372666901620000184'
p853
sF41.158673999999998
S'1372645575620000201'
p854
sF41.159025
S'1372651472620000435'
p855
sF41.159376000000002
S'1372667907620000398'
p856
sF41.142392999999998
S'1372647120620000307'
p857
sF41.142744
S'1372640338620000423'
p858
sF41.126111999999999
S'1372649002620000463'
p859
sF41.155118999999999
S'1372666613620000693'
p860
sF41.147154
S'1372664268620000517'
p861
sF41.155821000000003
S'1372660432620000400'
p862
sF41.160924000000001
S'1372663674620000027'
p863
sF41.195475000000002
S'1372647115620000201'
p864
sF41.122404000000003
S'1372659744620000269'
p865
sF41.151915000000002
S'1372639857620000089'
p866
sF41.166846
S'1372667821620000578'
p867
sF41.164290000000001
S'1372665861620000163'
p868
sF41.185358999999998
S'1372640408620000013'
p869
sF41.180723999999998
S'1372639380620000201'
p870
sF41.160015000000001
S'1372667193620000432'
p871
sF41.144454000000003
S'1372660899620000285'
p872
sF41.173461000000003
S'1372663780620000178'
p873
sF41.156478
S'1372667637620000455'
p874
sF41.139494999999997
S'1372666136620000648'
p875
sF41.148864000000003
S'1372651473620000454'
p876
sF41.160888
S'1372658372620000618'
p877
sF41.152571999999999
S'1372656127620000472'
p878
sF41.161239000000002
S'1372666683620000271'
p879
sF41.156981999999999
S'1372665277620000065'
p880
sF41.235335999999997
S'1372649323620000496'
p881
sF41.161391999999999
S'1372646710620000367'
p882
sF41.170059000000002
S'1372666824620000588'
p883
sF41.157134999999997
S'1372667159620000653'
p884
ssS'lngIds'
p885
(dp886
F-8.5864410000000007
S'1372661177620000104'
p887
sF-8.5931370000000005
g765
sF-8.6347349999999992
g432
sF-8.5824990000000003
g230
sF-8.6782950000000003
g69
sF-8.6098859999999995
g129
sF-8.5976370000000006
g617
sF-8.5997160000000008
g9
sF-8.6089590000000005
g258
sF-8.573715
g121
sF-8.6346089999999993
g21
sF-8.6366879999999995
g166
sF-8.6689260000000008
g180
sF-8.6035229999999991
g372
sF-8.6874120000000001
g264
sF-8.6079329999999992
g414
sF-8.6025960000000001
g45
sF-8.613918
g618
sF-8.6303249999999991
g471
sF-8.6109120000000008
g60
sF-8.5879169999999991
g537
sF-8.6365619999999996
g409
sF-8.6478839999999995
g771
sF-8.5911480000000005
g399
sF-8.696529
g615
sF-8.6024700000000003
g304
sF-8.6874300000000009
g485
sF-8.6158710000000003
g104
sF-8.5857119999999991
S'1372659474620000178'
p888
sF-8.6200290000000006
g767
sF-8.6313510000000004
S'1372664689620000006'
p889
sF-8.5981860000000001
g720
sF-8.6485230000000008
g214
sF-8.6632379999999998
S'1372649132620000574'
p890
sF-8.6065020000000008
g487
sF-8.6229089999999999
S'1372647683620000492'
p891
sF-8.6178240000000006
g492
sF-8.6333040000000008
g91
sF-8.6118570000000005
g278
sF-8.6052239999999998
g404
sF-8.6681969999999993
g683
sF-8.6702759999999994
g351
sF-8.6207039999999999
g344
sF-8.6227830000000001
g83
sF-8.6176980000000007
g531
sF-8.6248620000000003
g268
sF-8.6071770000000001
g458
sF-8.6680709999999994
S'1372662742620000151'
p892
sF-8.6701499999999996
g292
sF-8.6390639999999994
g488
sF-8.5823280000000004
g737
sF-8.6494590000000002
g358
sF-8.6070510000000002
g126
sF-8.6658659999999994
g856
sF-8.6536170000000006
g847
sF-8.6700239999999997
g234
sF-8.5923719999999992
g172
sF-8.595675
g356
sF-8.5856220000000008
S'1372653764620000486'
p893
sF-8.6140889999999999
g87
sF-8.6698979999999999
g442
sF-8.6203260000000004
g396
sF-8.629569
g736
sF-8.6459759999999992
g247
sF-8.600562
g479
sF-8.5856130000000004
S'1372660188620000247'
p894
sF-8.6013629999999992
g157
sF-8.6045940000000005
g490
sF-8.6087520000000008
g452
sF-8.6047560000000001
g340
sF-8.6415659999999992
g266
sF-8.6738040000000005
g209
sF-8.6334750000000007
S'1372664885620000101'
p895
sF-8.6549669999999992
g262
sF-8.6698799999999991
g136
sF-8.6468760000000007
g625
sF-8.6489550000000008
g310
sF-8.5856309999999993
S'1372659774620000231'
p896
sF-8.5897889999999997
g39
sF-8.6697360000000003
g152
sF-8.6384340000000002
g775
sF-8.6252490000000002
g553
sF-8.649756
g708
sF-8.6682419999999993
g718
sF-8.6703209999999995
S'1372660620620000114'
p897
sF-8.6135850000000005
g96
sF-8.6177430000000008
g20
sF-8.5753350000000008
g254
sF-8.6657399999999996
S'1372637303620000596'
p898
sF-8.6081489999999992
g780
sF-8.6358779999999999
g285
sF-8.6072220000000002
g445
sF-8.6660369999999993
g286
sF-8.6164649999999998
g554
sF-8.6701949999999997
g482
sF-8.5832999999999995
g493
sF-8.5967009999999995
g207
sF-8.687754
g740
sF-8.6050170000000001
g866
sF-8.6091750000000005
g395
sF-8.5810949999999995
g565
sF-8.5831739999999996
g312
sF-8.6461469999999991
g303
sF-8.5843260000000008
g560
sF-8.6380560000000006
g645
sF-8.669943
g526
sF-8.6203710000000004
g586
sF-8.6627969999999994
g684
sF-8.6224500000000006
S'1372666118620000051'
p899
sF-8.6854230000000001
g540
sF-8.6098499999999998
g787
sF-8.6190929999999994
g143
sF-8.6698170000000001
g280
sF-8.6417369999999991
g741
sF-8.6458949999999994
g138
sF-8.6408100000000001
g596
sF-8.6676479999999998
g846
sF-8.5859550000000002
S'1372668421620000093'
p900
sF-8.6097239999999999
S'1372661016620000435'
p901
sF-8.6118030000000001
g70
sF-8.6210459999999998
g352
sF-8.6604480000000006
g587
sF-8.5714740000000003
g279
sF-8.6696910000000003
g738
sF-8.6201190000000008
g831
sF-8.6682240000000004
g593
sF-8.6314410000000006
g793
sF-8.6406840000000003
g139
sF-8.6146829999999994
g467
sF-8.6684129999999993
g623
sF-8.6704919999999994
g573
sF-8.6394509999999993
g220
sF-8.6229990000000001
g735
sF-8.5741650000000007
g690
sF-8.6767289999999999
g882
sF-8.6271570000000004
g607
sF-8.6316030000000001
g227
sF-8.6703659999999996
S'1372649134620000540'
p902
sF-8.6027039999999992
g400
sF-8.5962329999999998
g103
sF-8.6102729999999994
g176
sF-8.6072670000000002
S'1372654229620000663'
p903
sF-8.7034050000000001
g25
sF-8.5720229999999997
g339
sF-8.6702399999999997
g816
sF-8.6049810000000004
g583
sF-8.6075549999999996
g878
sF-8.6546339999999997
g520
sF-8.6059619999999999
g746
sF-8.5608719999999998
g375
sF-8.6184630000000002
g119
sF-8.6133780000000009
g757
sF-8.6247000000000007
S'1372637299620000011'
p904
sF-8.5986989999999999
g798
sF-8.5634549999999994
g271
sF-8.6100209999999997
g116
sF-8.6204160000000005
g251
sF-8.6439869999999992
g107
sF-8.6073210000000007
g733
sF-8.6783040000000007
g474
sF-8.6358960000000007
g376
sF-8.6027310000000003
S'1372662016620000294'
p905
sF-8.6853510000000007
g408
sF-8.6336910000000007
g632
sF-8.6702940000000002
g354
sF-8.6148539999999993
g663
sF-8.609769
g489
sF-8.5869809999999998
g832
sF-8.6282549999999993
g570
sF-8.6604930000000007
g392
sF-8.5735980000000005
S'1372665349620000370'
p906
sF-8.6034059999999997
g751
sF-8.5911570000000008
g111
sF-8.5579920000000005
g697
sF-8.589753
g397
sF-8.663373
g316
sF-8.6281289999999995
S'1372665180620000174'
p907
sF-8.6322869999999998
g682
sF-8.6291550000000008
g833
sF-8.5981950000000005
g76
sF-8.6115960000000005
g239
sF-8.6300819999999998
g855
sF-8.6135490000000008
g622
sF-8.6485679999999991
g65
sF-8.6061599999999991
g859
sF-8.6612670000000005
g778
sF-8.6849640000000008
g873
sF-8.5564710000000002
g677
sF-8.6257979999999996
g836
sF-8.5762260000000001
g576
sF-8.6633549999999993
g12
sF-8.6001480000000008
g460
sF-8.6525999999999996
g550
sF-8.6454360000000001
g189
sF-8.6115870000000001
g662
sF-8.6086980000000004
S'1372668463620000308'
p908
sF-8.5668570000000006
g655
sF-8.6205870000000004
S'1372663310620000346'
p909
sF-8.6999669999999991
g864
sF-8.6059079999999994
g508
sF-8.6151509999999991
g594
sF-8.6473890000000004
g505
sF-8.6286869999999993
g727
sF-8.6702849999999998
g434
sF-8.6163030000000003
g486
sF-8.6700330000000001
g331
sF-8.6276250000000001
g326
sF-8.6207130000000003
g252
sF-8.6016239999999993
g711
sF-8.6249880000000001
g515
sF-8.6737500000000001
g115
sF-8.6099399999999999
g421
sF-8.5919399999999992
g80
sF-8.5860179999999993
g641
sF-8.6699070000000003
g572
sF-8.5994189999999993
g88
sF-8.6686289999999993
g779
sF-8.6448599999999995
g345
sF-8.5858919999999994
g106
sF-8.6181300000000007
g162
sF-8.5870440000000006
g820
sF-8.6490270000000002
g243
sF-8.6147729999999996
g362
sF-8.6025240000000007
S'1372644235620000520'
p910
sF-8.6368860000000005
g652
sF-8.6302529999999997
g840
sF-8.6425470000000004
g54
sF-8.6293260000000007
g412
sF-8.6012459999999997
g658
sF-8.6054040000000001
S'1372645110620000542'
p911
sF-8.6003190000000007
g631
sF-8.6094989999999996
g153
sF-8.6252040000000001
g745
sF-8.6280479999999997
g839
sF-8.5856399999999997
g606
sF-8.6250420000000005
g156
sF-8.5453109999999999
g378
sF-8.645607
g299
sF-8.6103629999999995
g427
sF-8.6497650000000004
S'1372662255620000529'
p912
sF-8.6196059999999992
g245
sF-8.6165369999999992
g469
sF-8.5804290000000005
g567
sF-8.6039999999999992
g320
sF-8.5888259999999992
g192
sF-8.6099580000000007
g250
sF-8.6194799999999994
g287
sF-8.6249789999999997
g568
sF-8.6215589999999995
g475
sF-8.6113440000000008
g357
sF-8.6113890000000008
g679
sF-8.5782240000000005
g559
sF-8.5874670000000002
g222
sF-8.6381910000000008
g322
sF-8.6151959999999992
g603
sF-8.6638409999999997
g666
sF-8.5109670000000008
g68
sF-8.6698889999999995
S'1372657240620000075'
p913
sF-8.6700780000000002
S'1372648578620000112'
p914
sF-8.6276700000000002
g73
sF-8.6419979999999992
g597
sF-8.5995899999999992
g99
sF-8.5604130000000005
g616
sF-8.6213069999999998
g355
sF-8.6699520000000003
g112
sF-8.6203800000000008
g681
sF-8.636787
g19
sF-8.6002469999999995
S'1372667451620000560'
p915
sF-8.6522670000000002
g671
sF-8.6026950000000006
g702
sF-8.6191019999999998
g407
sF-8.5859369999999995
g52
sF-8.5951799999999992
g423
sF-8.5882500000000004
g534
sF-8.6739840000000008
g522
sF-8.5940279999999998
g281
sF-8.6014169999999996
g569
sF-8.605575
g805
sF-8.6004900000000006
g294
sF-8.6646059999999991
g319
sF-8.606484
g828
sF-8.6159700000000008
g838
sF-8.6365350000000003
g747
sF-8.6096070000000005
g140
sF-8.6633370000000003
g347
sF-8.6137650000000008
g364
sF-8.5625730000000004
g228
sF-8.5949279999999995
g524
sF-8.6077530000000007
g504
sF-8.6011649999999999
g612
sF-8.5536720000000006
g620
sF-8.6760540000000006
g435
sF-8.6258879999999998
S'1372664473620000409'
p916
sF-8.6888609999999993
g43
sF-8.6464529999999993
g441
sF-8.6040449999999993
g51
sF-8.5945769999999992
g71
sF-8.5741110000000003
g377
sF-8.6702490000000001
g405
sF-8.6127120000000001
g260
sF-8.5925969999999996
g210
sF-8.5988340000000001
g342
sF-8.628444
g439
sF-8.6701230000000002
S'1372651844620000432'
p917
sF-8.6205510000000007
g796
sF-8.5924709999999997
g429
sF-8.6632470000000001
g461
sF-8.6058719999999997
g857
sF-8.5856759999999994
g46
sF-8.6398379999999992
g541
sF-8.6296859999999995
S'1372653985620000653'
p918
sF-8.6015879999999996
g814
sF-8.6129099999999994
S'1372666972620000557'
p919
sF-8.6119830000000004
g667
sF-8.6376329999999992
g443
sF-8.6698710000000005
S'1372664939620000576'
p920
sF-8.6014619999999997
g246
sF-8.6408640000000005
g877
sF-8.6107049999999994
g324
sF-8.6127839999999996
g650
sF-8.6084370000000003
g202
sF-8.6706719999999997
g646
sF-8.6571990000000003
g413
sF-8.616987
g296
sF-8.6467320000000001
S'1372652609620000561'
p921
sF-8.5971779999999995
g58
sF-8.6499810000000004
g147
sF-8.5681709999999995
g181
sF-8.6262299999999996
g654
sF-8.6196959999999994
g430
sF-8.6519340000000007
g867
sF-8.6238539999999997
g611
sF-8.6187690000000003
g643
sF-8.585604
S'1372655941620000247'
p922
sF-8.5897620000000003
g595
sF-8.654814
g212
sF-8.6288129999999992
g133
sF-8.6094000000000008
g363
sF-8.6631300000000007
g792
sF-8.6371289999999998
g335
sF-8.6366250000000004
g403
sF-8.5968
g863
sF-8.5988790000000002
g122
sF-8.652609
g22
sF-8.6690159999999992
g272
sF-8.6328180000000003
g834
sF-8.6253299999999999
g610
sF-8.5841999999999992
S'1372656286620000520'
p923
sF-8.6307659999999995
g195
sF-8.6701680000000003
g175
sF-8.6099940000000004
g636
sF-8.6092379999999995
g609
sF-8.6319180000000006
g93
sF-8.594595
g211
sF-8.607996
g27
sF-8.5661369999999994
g242
sF-8.559666
g203
sF-8.6885279999999998
g579
sF-8.6389560000000003
g134
sF-8.5689089999999997
g223
sF-8.5469760000000008
g131
sF-8.5138110000000005
g221
sF-8.6305139999999998
S'1372645492620000171'
p924
sF-8.6699160000000006
g386
sF-8.6707079999999994
g575
sF-8.6199929999999991
g724
sF-8.6665589999999995
g880
sF-8.6241509999999995
g37
sF-8.6190660000000001
g15
sF-8.622522
S'1372659410620000463'
p925
sF-8.6339609999999993
g498
sF-8.6020649999999996
g11
sF-8.5921380000000003
g224
sF-8.6064659999999993
g149
sF-8.6479470000000003
g715
sF-8.6177879999999991
g777
sF-8.6198669999999993
g154
sF-8.6012550000000001
g571
sF-8.6176619999999993
g171
sF-8.5752539999999993
g123
sF-8.6173739999999999
g705
sF-8.6095710000000008
g535
sF-8.6188140000000004
g850
sF-8.6208930000000006
g191
sF-8.5856490000000001
g449
sF-8.5883760000000002
g130
sF-8.6476950000000006
g255
sF-8.6641019999999997
g184
sF-8.6703390000000002
g117
sF-8.6816610000000001
g174
sF-8.6971410000000002
g624
sF-8.6287319999999994
g30
sF-8.6702130000000004
g215
sF-8.6349689999999999
g327
sF-8.5925609999999999
g790
sF-8.6483699999999999
g393
sF-8.5686389999999992
g626
sF-8.6680080000000004
g170
sF-8.6700870000000005
g810
sF-8.5903559999999999
g638
sF-8.6369220000000002
g141
sF-8.605836
g101
sF-8.6688089999999995
g179
sF-8.6141520000000007
g472
sF-8.6801309999999994
g418
sF-8.6233950000000004
g270
sF-8.6699610000000007
g337
sF-8.6275530000000007
g370
sF-8.6296320000000009
g734
sF-8.6107949999999995
g259
sF-8.6200379999999992
g261
sF-8.6149529999999999
g789
sF-8.6244750000000003
g437
sF-8.6058810000000001
S'1372664712620000579'
p926
sF-8.6396759999999997
g23
sF-8.6044319999999992
g419
sF-8.6106689999999997
g32
sF-8.657235
g321
sF-8.6664779999999997
g244
sF-8.6097420000000007
g308
sF-8.6210640000000005
g555
sF-8.5950629999999997
g169
sF-8.6457870000000003
g33
sF-8.6075370000000007
g753
sF-8.6096160000000008
g86
sF-8.6152230000000003
g77
sF-8.6705100000000002
g18
sF-8.6209380000000007
g801
sF-8.6230170000000008
S'1372637984620000520'
p927
sF-8.6041799999999995
g7
sF-8.6507459999999998
g196
sF-8.6011740000000003
g374
sF-8.6498910000000002
g848
sF-8.6132609999999996
g640
sF-8.6103719999999999
g556
sF-8.693028
g477
sF-8.5989690000000003
g510
sF-8.611065
g496
sF-8.6225039999999993
S'1372665022620000286'
p928
sF-8.6160329999999998
g495
sF-8.6144490000000005
g648
sF-8.5863689999999995
g619
sF-8.6702580000000005
g190
sF-8.550198
g759
sF-8.6131709999999995
g700
sF-8.6030010000000008
g218
sF-8.6122440000000005
g448
sF-8.5698360000000005
g24
sF-8.5841639999999995
g464
sF-8.6701320000000006
g63
sF-8.5996439999999996
g698
sF-8.6846669999999992
g371
sF-8.6229630000000004
g680
sF-8.5685579999999995
g687
sF-8.6222879999999993
g56
sF-8.6100390000000004
S'1372641328620000005'
p929
sF-8.5819589999999994
g825
sF-8.5861169999999998
g297
sF-8.6700060000000008
g762
sF-8.6046029999999991
g494
sF-8.6200829999999993
g291
sF-8.6221619999999994
g53
sF-8.6005439999999993
g201
sF-8.6170770000000001
g205
sF-8.6283989999999999
g525
sF-8.6489639999999994
g696
sF-8.5936050000000002
g808
sF-8.6097870000000007
g527
sF-8.6231880000000007
S'1372642178620000060'
p930
sF-8.6328270000000007
g818
sF-8.5788810000000009
g148
sF-8.6479110000000006
g608
sF-8.6147460000000002
g85
sF-8.6848829999999992
g198
sF-8.6281470000000002
g750
sF-8.5908239999999996
g709
sF-8.6063039999999997
S'1372658976620000249'
p931
sF-8.6176259999999996
g851
sF-8.6498640000000009
g507
sF-8.6217839999999999
g206
sF-8.5886189999999996
g290
sF-8.6208570000000009
g761
sF-8.6444279999999996
g17
sF-8.5842449999999992
g350
sF-8.6288219999999995
S'1372644406620000154'
p932
sF-8.622954
g438
sF-8.6703030000000005
g125
sF-8.5905719999999999
g491
sF-8.592651
g635
sF-8.6018939999999997
g514
sF-8.6039729999999999
g580
sF-8.606052
g872
sF-8.5800509999999992
g675
sF-8.6567760000000007
S'1372665045620000068'
p933
sF-8.6701770000000007
g159
sF-8.603847
g812
sF-8.6223329999999994
g455
sF-8.6285699999999999
g823
sF-8.5861619999999998
g49
sF-8.6700510000000008
g804
sF-8.6484869999999994
g512
sF-8.6455979999999997
g431
sF-8.6129639999999998
g365
sF-8.6523660000000007
g794
sF-8.6222069999999995
g822
sF-8.6687729999999998
g94
sF-8.600301
g275
sF-8.5890419999999992
g420
sF-8.5839569999999998
g216
sF-8.599437
g293
sF-8.6480820000000005
g689
sF-8.6200019999999995
g480
sF-8.6522400000000008
g517
sF-8.6102369999999997
g402
sF-8.6554169999999999
g714
sF-8.6283180000000002
S'1372659155620000372'
p934
sF-8.6375609999999998
g803
sF-8.6912909999999997
g311
sF-8.5921470000000006
g473
sF-8.6694479999999992
g484
sF-8.6270399999999992
g385
sF-8.6042699999999996
g536
sF-8.6135129999999993
g178
sF-8.6176709999999996
g389
sF-8.6321879999999993
g744
sF-8.6269139999999993
g436
sF-8.670204
g815
sF-8.6188230000000008
g835
sF-8.5856580000000005
g145
sF-8.6092289999999991
S'1372651027620000600'
p935
sF-8.6133869999999995
S'1372638031620000171'
p936
sF-8.6703480000000006
g730
sF-8.6422679999999996
g782
sF-8.6443469999999998
S'1372665226620000255'
p937
sF-8.5831920000000004
g317
sF-8.6019389999999998
g588
sF-8.7093989999999994
g164
sF-8.6669909999999994
g728
sF-8.6690699999999996
S'1372658027620000669'
p938
sF-8.6257350000000006
g204
sF-8.5976549999999996
g167
sF-8.549334
g61
sF-8.6038920000000001
g706
sF-8.5665689999999994
g300
sF-8.6202989999999993
g398
sF-8.5820489999999996
g237
sF-8.6659380000000006
g225
sF-8.5903650000000003
g827
sF-8.6067719999999994
g390
sF-8.6088509999999996
S'1372657775620000578'
p939
sF-8.6180939999999993
g548
sF-8.6058450000000004
g500
sF-8.6739029999999993
g530
sF-8.5591530000000002
g764
sF-8.6128830000000001
g384
sF-8.6170410000000004
g29
sF-8.5746330000000004
g647
sF-8.6376059999999999
S'1372660972620000678'
p940
sF-8.6136839999999992
g276
sF-8.6014350000000004
g707
sF-8.6178419999999996
g334
sF-8.5846769999999992
g739
sF-8.6634810000000009
g824
sF-8.5765860000000007
g236
sF-8.5858290000000004
g6
sF-8.6262840000000001
g870
sF-8.6580449999999995
g263
sF-8.6105520000000002
g752
sF-8.6054670000000009
g5
sF-8.621874
S'1372667457620000076'
p941
sF-8.6403599999999994
g598
sF-8.6415120000000005
g447
sF-8.6297490000000003
S'1372661440620000408'
p942
sF-8.6528340000000004
g369
sF-8.6155109999999997
g208
sF-8.6692409999999995
g44
sF-8.6217480000000002
g630
sF-8.6259060000000005
g649
sF-8.6393070000000005
g302
sF-8.604063
g282
sF-8.6061420000000002
g788
sF-8.6010570000000008
g330
sF-8.6702670000000008
S'1372664269620000534'
p943
sF-8.6371020000000005
S'1372666091620000349'
p944
sF-8.6111009999999997
g105
sF-8.6316659999999992
g360
sF-8.6775389999999994
g672
sF-8.5841729999999998
S'1372663299620000617'
p945
sF-8.6256540000000008
g253
sF-8.6047379999999993
g644
sF-8.6160599999999992
S'1372660680620000311'
p946
sF-8.6626259999999995
g704
sF-8.6058900000000005
g366
sF-8.6524560000000008
g48
sF-8.6213700000000006
g518
sF-8.5861260000000001
g16
sF-8.5923630000000006
g755
sF-8.6138549999999992
g785
sF-8.6200469999999996
g341
sF-8.610849
g388
sF-8.6221709999999998
g843
sF-8.62425
g651
sF-8.680059
g694
sF-8.6266440000000006
g465
sF-8.6189940000000007
g231
sF-8.6158079999999995
S'1372650711620000403'
p947
sF-8.5888799999999996
S'1372660002620000320'
p948
sF-8.6446889999999996
g842
sF-8.6246550000000006
g561
sF-8.6698350000000008
g329
sF-8.606439
g602
sF-8.6228459999999991
g592
sF-8.6249249999999993
g657
sF-8.5857480000000006
g416
sF-8.6301360000000003
g519
sF-8.5970700000000004
g564
sF-8.6621220000000001
g742
sF-8.6704380000000008
g817
sF-8.6280300000000008
g50
sF-8.6817600000000006
g306
sF-8.6465160000000001
g481
sF-8.6112719999999996
g425
sF-8.6629229999999993
g74
sF-8.6175090000000001
g113
sF-8.6127479999999998
g605
sF-8.6111459999999997
g411
sF-8.6400269999999999
g40
sF-8.6223419999999997
g89
sF-8.6100930000000009
g807
sF-8.6327370000000005
g307
sF-8.4941910000000007
g509
sF-8.6029020000000003
g476
sF-8.5924080000000007
g853
sF-8.6180579999999996
g542
sF-8.6201369999999997
g163
sF-8.6150520000000004
g774
sF-8.6212890000000009
g829
sF-8.6872679999999995
g158
sF-8.6305320000000005
g860
sF-8.6310000000000002
g361
sF-8.6439330000000005
g118
sF-8.6137739999999994
g719
sF-8.6552550000000004
g722
sF-8.5683600000000002
g406
sF-8.6022269999999992
g165
sF-8.6334119999999999
g854
sF-8.5557599999999994
g47
sF-8.6094899999999992
g701
sF-8.5619969999999999
g552
sF-8.5998509999999992
g501
sF-8.6736149999999999
g173
sF-8.6282010000000007
g538
sF-8.5857930000000007
g241
sF-8.6114429999999995
g582
sF-8.6135219999999997
g686
sF-8.6672519999999995
g108
sF-8.6543369999999999
g66
sF-8.6361659999999993
g79
sF-8.6148179999999996
g676
sF-8.6280750000000008
g13
sF-8.6050799999999992
g633
sF-8.5928310000000003
g313
sF-8.602074
g353
sF-8.6113169999999997
g513
sF-8.6062320000000003
g695
sF-8.6083110000000005
g328
sF-8.6091929999999994
g865
sF-8.6692049999999998
g64
sF-8.6196330000000003
g800
sF-8.6175899999999999
g478
sF-8.6131980000000006
g784
sF-8.6950800000000008
g349
sF-8.6257889999999993
g749
sF-8.6921820000000007
g95
sF-8.6329080000000005
g265
sF-8.6493149999999996
g135
sF-8.6140709999999991
g558
sF-8.6161499999999993
g161
sF-8.6274090000000001
g298
sF-8.6223869999999998
g725
sF-8.5871429999999993
g128
sF-8.6337089999999996
g14
sF-8.669727
g653
sF-8.6895179999999996
g381
sF-8.6118659999999991
g444
sF-8.6697539999999993
g754
sF-8.5756949999999996
g142
sF-8.5799160000000008
g795
sF-8.6112900000000003
g301
sF-8.5819320000000001
g424
sF-8.5840110000000003
g219
sF-8.6004179999999995
g333
sF-8.6283720000000006
g884
sF-8.6355360000000001
g726
sF-8.6091029999999993
g433
sF-8.6530950000000004
g584
sF-8.6602589999999999
g809
sF-8.6551740000000006
g72
sF-8.5858380000000007
g155
sF-8.5950810000000004
g177
sF-8.6039460000000005
g699
sF-8.6046390000000006
g102
sF-8.5960260000000002
g249
sF-8.6155200000000001
g621
sF-8.6175990000000002
S'1372663182620000247'
p949
sF-8.5701689999999999
g599
sF-8.6381639999999997
g226
sF-8.5885920000000002
g591
sF-8.6049989999999994
g802
sF-8.6817240000000009
g821
sF-8.6133150000000001
g544
sF-8.5750650000000004
g712
sF-8.584308
g274
sF-8.5469849999999994
g78
sF-8.6027939999999994
g127
sF-8.5905450000000005
g868
sF-8.6699249999999992
g656
sF-8.5985099999999992
S'1372666327620000120'
p950
sF-8.5862610000000004
S'1372661113620000330'
p951
sF-8.6844780000000004
g499
sF-8.6110740000000003
g600
sF-8.6886360000000007
g185
sF-8.6038200000000007
g67
sF-8.6058990000000009
g563
sF-8.6130630000000004
g193
sF-8.6172210000000007
g756
sF-8.5963049999999992
S'1372646789620000534'
p952
sF-8.5861350000000005
S'1372652079620000632'
p953
sF-8.5974570000000003
g160
sF-8.6583509999999997
g758
sF-8.6231069999999992
S'1372643636620000060'
p954
sF-8.620101
g585
sF-8.6587019999999999
g716
sF-8.5987080000000002
g713
sF-8.6540669999999995
g151
sF-8.6438970000000008
g883
sF-8.6626349999999999
g124
sF-8.6158169999999998
S'1372650895620000403'
p955
sF-8.617896
g628
sF-8.6271389999999997
g453
sF-8.6253119999999992
g382
sF-8.6921909999999993
S'1372643201620000621'
p956
sF-8.664021
g703
sF-8.6518619999999995
g379
sF-8.6396130000000007
g120
sF-8.6207759999999993
g543
sF-8.5359599999999993
S'1372649766620000089'
p957
sF-8.6158350000000006
g81
sF-8.6153849999999998
g781
sF-8.6201100000000004
S'1372661705620000539'
p958
sF-8.6487300000000005
g314
sF-8.6063220000000005
g826
sF-8.5913369999999993
S'1372659128620000268'
p959
sF-8.6050439999999995
g768
sF-8.6486040000000006
g529
sF-8.6700959999999991
S'1372650243620000463'
p960
sF-8.6226029999999998
g776
sF-8.5983839999999994
g383
sF-8.6846490000000003
g90
sF-8.6699699999999993
g688
sF-8.6060700000000008
g454
sF-8.6503680000000003
g551
sF-8.5529700000000002
g506
sF-8.5842270000000003
g325
sF-8.6047919999999998
g315
sF-8.5672350000000002
g547
sF-8.4868109999999994
g869
sF-8.6295149999999996
g305
sF-8.637696
g693
sF-8.5984289999999994
g273
sF-8.5861800000000006
g368
sF-8.6224139999999991
g861
sF-8.6625540000000001
g197
sF-8.6201460000000001
g450
sF-8.5828229999999994
g549
sF-8.6243040000000004
g84
sF-8.6377050000000004
g146
sF-8.6012730000000008
g42
sF-8.6117039999999996
g92
sF-8.5994550000000007
g168
sF-8.6531850000000006
g55
sF-8.6179410000000001
g562
sF-8.6665860000000006
g748
sF-8.6701589999999999
g257
sF-8.6286509999999996
g546
sF-8.6396580000000007
g710
sF-8.6611499999999992
g114
sF-8.6228999999999996
g132
sF-8.5804919999999996
g668
sF-8.6772960000000001
g35
sF-8.5867290000000001
g318
sF-8.6093729999999997
S'1372649049620000671'
p961
sF-8.6114519999999999
g844
sF-8.6672609999999999
g283
sF-8.6680890000000002
g819
sF-8.6663340000000009
g31
sF-8.6143319999999992
g75
sF-8.5059450000000005
g415
sF-8.6701409999999992
S'1372657629620000576'
p962
sF-8.6083200000000009
g233
sF-8.6175630000000005
g852
sF-8.5843980000000002
g601
sF-8.5864770000000004
g269
sF-8.6846940000000004
g639
sF-8.6121269999999992
g194
sF-8.6700149999999994
g248
sF-8.6061150000000008
g604
sF-8.5987170000000006
g240
sF-8.6153580000000005
g533
sF-8.5842720000000003
g97
sF-8.6308380000000007
g581
sF-8.6400810000000003
g637
sF-8.5675139999999992
g875
sF-8.6555610000000005
S'1372646432620000105'
p963
sF-8.6152320000000007
g422
sF-8.6689620000000005
g417
sF-8.5841460000000005
g150
sF-8.702928
g188
sF-8.6231969999999993
S'1372665204620000618'
p964
sF-8.6252759999999995
g309
sF-8.6667570000000005
g516
sF-8.5797629999999998
g545
sF-8.6129820000000006
g769
sF-8.6327999999999996
g786
sF-8.6469930000000002
S'1372646610620000112'
p965
sF-8.6230709999999995
g359
sF-8.6108220000000006
g523
sF-8.6696369999999998
g57
sF-8.5827419999999996
g574
sF-8.6221440000000005
g731
sF-8.6406299999999998
g678
sF-8.6177969999999995
g497
sF-8.6074649999999995
g659
sF-8.6106960000000008
g773
sF-8.6644260000000006
g401
sF-8.5473719999999993
g589
sF-8.5909320000000005
g238
sF-8.6374980000000008
S'1372643825620000569'
p966
sF-8.6043330000000005
g348
sF-8.6703119999999991
g717
sF-8.6207399999999996
g137
sF-8.6320619999999995
g394
sF-8.6009759999999993
g760
sF-8.6143769999999993
g845
sF-8.6701859999999993
S'1372660406620000502'
p967
sF-8.6176080000000006
g766
sF-8.6713380000000004
g862
sF-8.6040810000000008
g332
sF-8.6700599999999994
g295
sF-8.6020289999999999
g483
sF-8.5894019999999998
g590
sF-8.6288040000000006
g343
sF-8.5725899999999999
g267
sF-8.6701139999999999
g661
sF-8.6203620000000001
S'1372668221620000621'
p968
sF-8.6130359999999992
g732
sF-8.6388479999999994
g830
sF-8.6265990000000006
g367
sF-8.6098409999999994
g38
sF-8.6420790000000007
g502
sF-8.6160779999999999
g462
sF-8.5808339999999994
g186
sF-8.6130720000000007
g98
sF-8.6366429999999994
g468
sF-8.6097149999999996
g200
sF-8.636139
g410
sF-8.5673069999999996
g799
sF-8.5892219999999995
g456
sF-8.6231159999999996
S'1372640130620000010'
p969
sF-8.5684590000000007
g729
sF-8.6666760000000007
g288
sF-8.5869450000000001
g387
sF-8.6696100000000005
g110
sF-8.6821560000000009
g451
sF-8.6948369999999997
g459
sF-8.5692599999999999
S'1372648496620000101'
p970
sF-8.6107410000000009
g289
sF-8.4991319999999995
g577
sF-8.6043780000000005
g428
sF-8.611542
g566
sF-8.6085360000000009
g503
sF-8.5565339999999992
g691
sF-8.6847300000000001
g323
sF-8.6072579999999999
g235
sF-8.6702309999999994
g256
sF-8.6764679999999998
g874
sF-8.6319809999999997
S'1372658808620000386'
p971
sF-8.6289750000000005
g187
sF-8.6329170000000008
g100
sF-8.6235389999999992
g229
sF-8.6701049999999995
g557
ssS'lngs'
p972
(lp973
F-8.7093989999999994
aF-8.7034050000000001
aF-8.702928
aF-8.6999669999999991
aF-8.6971410000000002
aF-8.696529
aF-8.6950800000000008
aF-8.6948369999999997
aF-8.693028
aF-8.6921909999999993
aF-8.6921820000000007
aF-8.6912909999999997
aF-8.6895179999999996
aF-8.6888609999999993
aF-8.6886360000000007
aF-8.6885279999999998
aF-8.687754
aF-8.6874300000000009
aF-8.6874120000000001
aF-8.6872679999999995
aF-8.6854230000000001
aF-8.6853510000000007
aF-8.6849640000000008
aF-8.6848829999999992
aF-8.6847300000000001
aF-8.6846940000000004
aF-8.6846669999999992
aF-8.6846490000000003
aF-8.6846490000000003
aF-8.6844780000000004
aF-8.6821560000000009
aF-8.6817600000000006
aF-8.6817240000000009
aF-8.6816610000000001
aF-8.6801309999999994
aF-8.680059
aF-8.6783040000000007
aF-8.6782950000000003
aF-8.6775389999999994
aF-8.6772960000000001
aF-8.6767289999999999
aF-8.6764679999999998
aF-8.6760540000000006
aF-8.6739840000000008
aF-8.6739029999999993
aF-8.6738040000000005
aF-8.6737500000000001
aF-8.6736149999999999
aF-8.6713380000000004
aF-8.6707079999999994
aF-8.6706719999999997
aF-8.6705100000000002
aF-8.6704919999999994
aF-8.6704380000000008
aF-8.6703659999999996
aF-8.6703659999999996
aF-8.6703480000000006
aF-8.6703390000000002
aF-8.6703209999999995
aF-8.6703119999999991
aF-8.6703030000000005
aF-8.6703030000000005
aF-8.6702940000000002
aF-8.6702849999999998
aF-8.6702759999999994
aF-8.6702759999999994
aF-8.6702759999999994
aF-8.6702759999999994
aF-8.6702670000000008
aF-8.6702670000000008
aF-8.6702580000000005
aF-8.6702580000000005
aF-8.6702490000000001
aF-8.6702490000000001
aF-8.6702490000000001
aF-8.6702490000000001
aF-8.6702399999999997
aF-8.6702399999999997
aF-8.6702309999999994
aF-8.6702309999999994
aF-8.6702130000000004
aF-8.6702130000000004
aF-8.6702130000000004
aF-8.670204
aF-8.670204
aF-8.670204
aF-8.6701949999999997
aF-8.6701859999999993
aF-8.6701859999999993
aF-8.6701770000000007
aF-8.6701680000000003
aF-8.6701680000000003
aF-8.6701680000000003
aF-8.6701680000000003
aF-8.6701589999999999
aF-8.6701589999999999
aF-8.6701499999999996
aF-8.6701499999999996
aF-8.6701499999999996
aF-8.6701409999999992
aF-8.6701409999999992
aF-8.6701320000000006
aF-8.6701320000000006
aF-8.6701230000000002
aF-8.6701230000000002
aF-8.6701230000000002
aF-8.6701139999999999
aF-8.6701049999999995
aF-8.6701049999999995
aF-8.6701049999999995
aF-8.6700959999999991
aF-8.6700870000000005
aF-8.6700870000000005
aF-8.6700870000000005
aF-8.6700780000000002
aF-8.6700780000000002
aF-8.6700599999999994
aF-8.6700510000000008
aF-8.6700510000000008
aF-8.6700510000000008
aF-8.6700510000000008
aF-8.6700510000000008
aF-8.6700330000000001
aF-8.6700330000000001
aF-8.6700239999999997
aF-8.6700149999999994
aF-8.6700149999999994
aF-8.6700149999999994
aF-8.6700060000000008
aF-8.6699699999999993
aF-8.6699610000000007
aF-8.6699610000000007
aF-8.6699520000000003
aF-8.669943
aF-8.669943
aF-8.669943
aF-8.6699249999999992
aF-8.6699160000000006
aF-8.6699160000000006
aF-8.6699070000000003
aF-8.6698979999999999
aF-8.6698889999999995
aF-8.6698799999999991
aF-8.6698710000000005
aF-8.6698350000000008
aF-8.6698170000000001
aF-8.6697539999999993
aF-8.6697360000000003
aF-8.669727
aF-8.6696910000000003
aF-8.6696369999999998
aF-8.6696100000000005
aF-8.6694479999999992
aF-8.6692409999999995
aF-8.6692409999999995
aF-8.6692049999999998
aF-8.6690699999999996
aF-8.6690159999999992
aF-8.6689620000000005
aF-8.6689260000000008
aF-8.6688089999999995
aF-8.6687729999999998
aF-8.6686289999999993
aF-8.6684129999999993
aF-8.6682419999999993
aF-8.6682240000000004
aF-8.6681969999999993
aF-8.6680890000000002
aF-8.6680709999999994
aF-8.6680080000000004
aF-8.6676479999999998
aF-8.6676479999999998
aF-8.6672609999999999
aF-8.6672519999999995
aF-8.6669909999999994
aF-8.6667570000000005
aF-8.6666760000000007
aF-8.6666760000000007
aF-8.6665860000000006
aF-8.6665589999999995
aF-8.6664779999999997
aF-8.6663340000000009
aF-8.6660369999999993
aF-8.6659380000000006
aF-8.6658659999999994
aF-8.6657399999999996
aF-8.6646059999999991
aF-8.6644260000000006
aF-8.6641019999999997
aF-8.664021
aF-8.6638409999999997
aF-8.6634810000000009
aF-8.663373
aF-8.6633549999999993
aF-8.6633370000000003
aF-8.6632470000000001
aF-8.6632379999999998
aF-8.6631300000000007
aF-8.6629229999999993
aF-8.6627969999999994
aF-8.6626349999999999
aF-8.6626259999999995
aF-8.6625540000000001
aF-8.6621220000000001
aF-8.6612670000000005
aF-8.6611499999999992
aF-8.6604930000000007
aF-8.6604480000000006
aF-8.6602589999999999
aF-8.6602589999999999
aF-8.6587019999999999
aF-8.6583509999999997
aF-8.6580449999999995
aF-8.657235
aF-8.6571990000000003
aF-8.6567760000000007
aF-8.6555610000000005
aF-8.6554169999999999
aF-8.6552550000000004
aF-8.6551740000000006
aF-8.6549669999999992
aF-8.654814
aF-8.6546339999999997
aF-8.6543369999999999
aF-8.6540669999999995
aF-8.6536170000000006
aF-8.6531850000000006
aF-8.6530950000000004
aF-8.6528340000000004
aF-8.652609
aF-8.6525999999999996
aF-8.6524560000000008
aF-8.6523660000000007
aF-8.6522670000000002
aF-8.6522400000000008
aF-8.6519340000000007
aF-8.6518619999999995
aF-8.6507459999999998
aF-8.6503680000000003
aF-8.6499810000000004
aF-8.6498910000000002
aF-8.6498640000000009
aF-8.6497650000000004
aF-8.649756
aF-8.6494590000000002
aF-8.6493149999999996
aF-8.6490270000000002
aF-8.6489639999999994
aF-8.6489550000000008
aF-8.6487300000000005
aF-8.6486040000000006
aF-8.6485679999999991
aF-8.6485230000000008
aF-8.6484869999999994
aF-8.6483699999999999
aF-8.6480820000000005
aF-8.6479470000000003
aF-8.6479110000000006
aF-8.6478839999999995
aF-8.6476950000000006
aF-8.6473890000000004
aF-8.6469930000000002
aF-8.6468760000000007
aF-8.6467320000000001
aF-8.6465160000000001
aF-8.6464529999999993
aF-8.6461469999999991
aF-8.6459759999999992
aF-8.6458949999999994
aF-8.6457870000000003
aF-8.645607
aF-8.6455979999999997
aF-8.6454360000000001
aF-8.6448599999999995
aF-8.6446889999999996
aF-8.6444279999999996
aF-8.6443469999999998
aF-8.6439869999999992
aF-8.6439330000000005
aF-8.6438970000000008
aF-8.6425470000000004
aF-8.6422679999999996
aF-8.6420790000000007
aF-8.6419979999999992
aF-8.6417369999999991
aF-8.6415659999999992
aF-8.6415120000000005
aF-8.6415120000000005
aF-8.6408640000000005
aF-8.6408100000000001
aF-8.6406840000000003
aF-8.6406299999999998
aF-8.6403599999999994
aF-8.6400810000000003
aF-8.6400269999999999
aF-8.6398379999999992
aF-8.6396759999999997
aF-8.6396580000000007
aF-8.6396130000000007
aF-8.6394509999999993
aF-8.6393070000000005
aF-8.6390639999999994
aF-8.6389560000000003
aF-8.6388479999999994
aF-8.6384340000000002
aF-8.6381910000000008
aF-8.6381639999999997
aF-8.6380560000000006
aF-8.6377050000000004
aF-8.637696
aF-8.6376329999999992
aF-8.6376059999999999
aF-8.6375609999999998
aF-8.6374980000000008
aF-8.6371289999999998
aF-8.6371020000000005
aF-8.6369220000000002
aF-8.6368860000000005
aF-8.636787
aF-8.6366879999999995
aF-8.6366429999999994
aF-8.6366250000000004
aF-8.6365619999999996
aF-8.6365619999999996
aF-8.6365350000000003
aF-8.6361659999999993
aF-8.636139
aF-8.6358960000000007
aF-8.6358779999999999
aF-8.6355360000000001
aF-8.6349689999999999
aF-8.6347349999999992
aF-8.6346089999999993
aF-8.6339609999999993
aF-8.6337089999999996
aF-8.6336910000000007
aF-8.6334750000000007
aF-8.6334119999999999
aF-8.6333040000000008
aF-8.6329170000000008
aF-8.6329080000000005
aF-8.6328270000000007
aF-8.6328180000000003
aF-8.6327999999999996
aF-8.6327370000000005
aF-8.6322869999999998
aF-8.6321879999999993
aF-8.6320619999999995
aF-8.6319809999999997
aF-8.6319180000000006
aF-8.6316659999999992
aF-8.6316030000000001
aF-8.6314410000000006
aF-8.6313510000000004
aF-8.6310000000000002
aF-8.6308380000000007
aF-8.6307659999999995
aF-8.6305320000000005
aF-8.6305139999999998
aF-8.6303249999999991
aF-8.6302529999999997
aF-8.6301360000000003
aF-8.6300819999999998
aF-8.6297490000000003
aF-8.6296859999999995
aF-8.6296320000000009
aF-8.6296320000000009
aF-8.629569
aF-8.6295149999999996
aF-8.6293260000000007
aF-8.6291550000000008
aF-8.6289750000000005
aF-8.6288219999999995
aF-8.6288129999999992
aF-8.6288040000000006
aF-8.6287319999999994
aF-8.6286869999999993
aF-8.6286509999999996
aF-8.6285699999999999
aF-8.628444
aF-8.6283989999999999
aF-8.6283720000000006
aF-8.6283180000000002
aF-8.6282549999999993
aF-8.6282010000000007
aF-8.6281470000000002
aF-8.6281289999999995
aF-8.6280750000000008
aF-8.6280479999999997
aF-8.6280300000000008
aF-8.6276700000000002
aF-8.6276250000000001
aF-8.6275530000000007
aF-8.6274090000000001
aF-8.6271570000000004
aF-8.6271389999999997
aF-8.6270399999999992
aF-8.6269139999999993
aF-8.6266440000000006
aF-8.6265990000000006
aF-8.6262840000000001
aF-8.6262299999999996
aF-8.6259060000000005
aF-8.6258879999999998
aF-8.6257979999999996
aF-8.6257889999999993
aF-8.6257350000000006
aF-8.6256540000000008
aF-8.6253299999999999
aF-8.6253299999999999
aF-8.6253119999999992
aF-8.6252759999999995
aF-8.6252490000000002
aF-8.6252040000000001
aF-8.6250420000000005
aF-8.6249880000000001
aF-8.6249789999999997
aF-8.6249249999999993
aF-8.6248620000000003
aF-8.6247000000000007
aF-8.6246550000000006
aF-8.6244750000000003
aF-8.6243040000000004
aF-8.62425
aF-8.6241509999999995
aF-8.6238539999999997
aF-8.6235389999999992
aF-8.6233950000000004
aF-8.6231969999999993
aF-8.6231880000000007
aF-8.6231159999999996
aF-8.6231069999999992
aF-8.6230709999999995
aF-8.6230170000000008
aF-8.6229990000000001
aF-8.6229990000000001
aF-8.6229630000000004
aF-8.6229630000000004
aF-8.6229630000000004
aF-8.622954
aF-8.622954
aF-8.6229089999999999
aF-8.6228999999999996
aF-8.6228459999999991
aF-8.6227830000000001
aF-8.6226029999999998
aF-8.622522
aF-8.6225039999999993
aF-8.6224500000000006
aF-8.6224139999999991
aF-8.6223869999999998
aF-8.6223419999999997
aF-8.6223329999999994
aF-8.6222879999999993
aF-8.6222069999999995
aF-8.6221709999999998
aF-8.6221619999999994
aF-8.6221440000000005
aF-8.621874
aF-8.6217839999999999
aF-8.6217480000000002
aF-8.6215589999999995
aF-8.6213700000000006
aF-8.6213069999999998
aF-8.6212890000000009
aF-8.6210640000000005
aF-8.6210459999999998
aF-8.6210459999999998
aF-8.6209380000000007
aF-8.6208930000000006
aF-8.6208570000000009
aF-8.6207759999999993
aF-8.6207399999999996
aF-8.6207399999999996
aF-8.6207130000000003
aF-8.6207039999999999
aF-8.6205870000000004
aF-8.6205510000000007
aF-8.6204160000000005
aF-8.6203800000000008
aF-8.6203710000000004
aF-8.6203710000000004
aF-8.6203620000000001
aF-8.6203260000000004
aF-8.6202989999999993
aF-8.6201460000000001
aF-8.6201460000000001
aF-8.6201369999999997
aF-8.6201369999999997
aF-8.6201190000000008
aF-8.6201100000000004
aF-8.6201100000000004
aF-8.620101
aF-8.620101
aF-8.6200829999999993
aF-8.6200469999999996
aF-8.6200379999999992
aF-8.6200379999999992
aF-8.6200290000000006
aF-8.6200019999999995
aF-8.6199929999999991
aF-8.6198669999999993
aF-8.6196959999999994
aF-8.6196330000000003
aF-8.6196330000000003
aF-8.6196059999999992
aF-8.6194799999999994
aF-8.6191019999999998
aF-8.6190929999999994
aF-8.6190660000000001
aF-8.6189940000000007
aF-8.6188230000000008
aF-8.6188140000000004
aF-8.6187690000000003
aF-8.6184630000000002
aF-8.6181300000000007
aF-8.6180939999999993
aF-8.6180579999999996
aF-8.6179410000000001
aF-8.617896
aF-8.6178419999999996
aF-8.6178240000000006
aF-8.6177969999999995
aF-8.6177879999999991
aF-8.6177430000000008
aF-8.6177430000000008
aF-8.6176980000000007
aF-8.6176709999999996
aF-8.6176619999999993
aF-8.6176259999999996
aF-8.6176080000000006
aF-8.6175990000000002
aF-8.6175899999999999
aF-8.6175630000000005
aF-8.6175090000000001
aF-8.6173739999999999
aF-8.6172210000000007
aF-8.6170770000000001
aF-8.6170770000000001
aF-8.6170410000000004
aF-8.616987
aF-8.6165369999999992
aF-8.6164649999999998
aF-8.6163030000000003
aF-8.6161499999999993
aF-8.6160779999999999
aF-8.6160599999999992
aF-8.6160329999999998
aF-8.6159700000000008
aF-8.6159700000000008
aF-8.6158710000000003
aF-8.6158350000000006
aF-8.6158169999999998
aF-8.6158079999999995
aF-8.6155200000000001
aF-8.6155109999999997
aF-8.6153849999999998
aF-8.6153580000000005
aF-8.6152320000000007
aF-8.6152230000000003
aF-8.6151959999999992
aF-8.6151509999999991
aF-8.6150520000000004
aF-8.6149529999999999
aF-8.6148539999999993
aF-8.6148179999999996
aF-8.6147729999999996
aF-8.6147460000000002
aF-8.6146829999999994
aF-8.6144490000000005
aF-8.6143769999999993
aF-8.6143319999999992
aF-8.6141520000000007
aF-8.6140889999999999
aF-8.6140889999999999
aF-8.6140709999999991
aF-8.613918
aF-8.6138549999999992
aF-8.6137739999999994
aF-8.6137650000000008
aF-8.6137650000000008
aF-8.6136839999999992
aF-8.6135850000000005
aF-8.6135490000000008
aF-8.6135219999999997
aF-8.6135129999999993
aF-8.6133869999999995
aF-8.6133780000000009
aF-8.6133150000000001
aF-8.6133150000000001
aF-8.6132609999999996
aF-8.6131980000000006
aF-8.6131709999999995
aF-8.6130720000000007
aF-8.6130630000000004
aF-8.6130359999999992
aF-8.6129820000000006
aF-8.6129639999999998
aF-8.6129099999999994
aF-8.6128830000000001
aF-8.6127839999999996
aF-8.6127479999999998
aF-8.6127479999999998
aF-8.6127120000000001
aF-8.6122440000000005
aF-8.6121269999999992
aF-8.6119830000000004
aF-8.6118659999999991
aF-8.6118570000000005
aF-8.6118030000000001
aF-8.6117039999999996
aF-8.6115960000000005
aF-8.6115870000000001
aF-8.611542
aF-8.6114519999999999
aF-8.6114429999999995
aF-8.6114429999999995
aF-8.6113890000000008
aF-8.6113440000000008
aF-8.6113169999999997
aF-8.6112900000000003
aF-8.6112719999999996
aF-8.6111459999999997
aF-8.6111009999999997
aF-8.6110740000000003
aF-8.611065
aF-8.6109120000000008
aF-8.610849
aF-8.6108220000000006
aF-8.6107949999999995
aF-8.6107949999999995
aF-8.6107410000000009
aF-8.6107049999999994
aF-8.6106960000000008
aF-8.6106960000000008
aF-8.6106689999999997
aF-8.6105520000000002
aF-8.6103719999999999
aF-8.6103629999999995
aF-8.6102729999999994
aF-8.6102369999999997
aF-8.6100930000000009
aF-8.6100390000000004
aF-8.6100209999999997
aF-8.6099940000000004
aF-8.6099580000000007
aF-8.6099399999999999
aF-8.6099399999999999
aF-8.6098859999999995
aF-8.6098499999999998
aF-8.6098409999999994
aF-8.6097870000000007
aF-8.609769
aF-8.6097420000000007
aF-8.6097239999999999
aF-8.6097239999999999
aF-8.6097149999999996
aF-8.6096160000000008
aF-8.6096070000000005
aF-8.6096070000000005
aF-8.6095710000000008
aF-8.6094989999999996
aF-8.6094899999999992
aF-8.6094000000000008
aF-8.6093729999999997
aF-8.6092379999999995
aF-8.6092289999999991
aF-8.6091929999999994
aF-8.6091750000000005
aF-8.6091029999999993
aF-8.6089590000000005
aF-8.6088509999999996
aF-8.6087520000000008
aF-8.6086980000000004
aF-8.6085360000000009
aF-8.6084370000000003
aF-8.6083200000000009
aF-8.6083110000000005
aF-8.6081489999999992
aF-8.607996
aF-8.6079329999999992
aF-8.6077530000000007
aF-8.6075549999999996
aF-8.6075370000000007
aF-8.6074649999999995
aF-8.6074649999999995
aF-8.6073210000000007
aF-8.6072670000000002
aF-8.6072579999999999
aF-8.6072220000000002
aF-8.6071770000000001
aF-8.6070510000000002
aF-8.6067719999999994
aF-8.6065020000000008
aF-8.606484
aF-8.6064659999999993
aF-8.606439
aF-8.6063220000000005
aF-8.6063039999999997
aF-8.6062320000000003
aF-8.6061599999999991
aF-8.6061420000000002
aF-8.6061150000000008
aF-8.6060700000000008
aF-8.6060700000000008
aF-8.606052
aF-8.6059619999999999
aF-8.6059079999999994
aF-8.6058990000000009
aF-8.6058900000000005
aF-8.6058900000000005
aF-8.6058810000000001
aF-8.6058719999999997
aF-8.6058450000000004
aF-8.6058450000000004
aF-8.605836
aF-8.605575
aF-8.6054670000000009
aF-8.6054040000000001
aF-8.6052239999999998
aF-8.6050799999999992
aF-8.6050439999999995
aF-8.6050170000000001
aF-8.6049989999999994
aF-8.6049810000000004
aF-8.6047919999999998
aF-8.6047560000000001
aF-8.6047379999999993
aF-8.6046390000000006
aF-8.6046029999999991
aF-8.6045940000000005
aF-8.6044319999999992
aF-8.6043780000000005
aF-8.6043330000000005
aF-8.6042699999999996
aF-8.6041799999999995
aF-8.6040810000000008
aF-8.604063
aF-8.6040449999999993
aF-8.6039999999999992
aF-8.6039729999999999
aF-8.6039729999999999
aF-8.6039460000000005
aF-8.6038920000000001
aF-8.603847
aF-8.6038200000000007
aF-8.6035229999999991
aF-8.6034059999999997
aF-8.6030010000000008
aF-8.6029020000000003
aF-8.6027939999999994
aF-8.6027310000000003
aF-8.6027039999999992
aF-8.6026950000000006
aF-8.6025960000000001
aF-8.6025240000000007
aF-8.6024700000000003
aF-8.6022269999999992
aF-8.602074
aF-8.6020649999999996
aF-8.6020289999999999
aF-8.6019389999999998
aF-8.6018939999999997
aF-8.6018939999999997
aF-8.6016239999999993
aF-8.6015879999999996
aF-8.6014619999999997
aF-8.6014350000000004
aF-8.6014169999999996
aF-8.6013629999999992
aF-8.6012730000000008
aF-8.6012550000000001
aF-8.6012459999999997
aF-8.6011740000000003
aF-8.6011649999999999
aF-8.6010570000000008
aF-8.6009759999999993
aF-8.600562
aF-8.6005439999999993
aF-8.6004900000000006
aF-8.6004179999999995
aF-8.6003190000000007
aF-8.600301
aF-8.6002469999999995
aF-8.6001480000000008
aF-8.5998509999999992
aF-8.5997160000000008
aF-8.5996439999999996
aF-8.5995899999999992
aF-8.5994550000000007
aF-8.599437
aF-8.5994189999999993
aF-8.5989690000000003
aF-8.5988790000000002
aF-8.5988340000000001
aF-8.5987170000000006
aF-8.5987080000000002
aF-8.5986989999999999
aF-8.5985099999999992
aF-8.5984289999999994
aF-8.5983839999999994
aF-8.5981950000000005
aF-8.5981860000000001
aF-8.5976549999999996
aF-8.5976549999999996
aF-8.5976370000000006
aF-8.5974570000000003
aF-8.5971779999999995
aF-8.5970700000000004
aF-8.5968
aF-8.5967009999999995
aF-8.5963049999999992
aF-8.5962329999999998
aF-8.5960260000000002
aF-8.595675
aF-8.5951799999999992
aF-8.5950810000000004
aF-8.5950629999999997
aF-8.5949279999999995
aF-8.594595
aF-8.5945769999999992
aF-8.5940279999999998
aF-8.5936050000000002
aF-8.5931370000000005
aF-8.5928310000000003
aF-8.592651
aF-8.5925969999999996
aF-8.5925609999999999
aF-8.5924709999999997
aF-8.5924080000000007
aF-8.5923719999999992
aF-8.5923630000000006
aF-8.5921470000000006
aF-8.5921380000000003
aF-8.5919399999999992
aF-8.5913369999999993
aF-8.5911570000000008
aF-8.5911480000000005
aF-8.5909320000000005
aF-8.5908239999999996
aF-8.5905719999999999
aF-8.5905450000000005
aF-8.5903650000000003
aF-8.5903559999999999
aF-8.5897889999999997
aF-8.5897620000000003
aF-8.589753
aF-8.5894019999999998
aF-8.5892219999999995
aF-8.5890419999999992
aF-8.5888799999999996
aF-8.5888259999999992
aF-8.5886189999999996
aF-8.5885920000000002
aF-8.5883760000000002
aF-8.5882500000000004
aF-8.5879169999999991
aF-8.5874670000000002
aF-8.5871429999999993
aF-8.5870440000000006
aF-8.5869809999999998
aF-8.5869450000000001
aF-8.5867290000000001
aF-8.5864770000000004
aF-8.5864410000000007
aF-8.5863689999999995
aF-8.5862610000000004
aF-8.5861800000000006
aF-8.5861619999999998
aF-8.5861350000000005
aF-8.5861260000000001
aF-8.5861169999999998
aF-8.5860179999999993
aF-8.5859550000000002
aF-8.5859369999999995
aF-8.5858919999999994
aF-8.5858380000000007
aF-8.5858290000000004
aF-8.5857930000000007
aF-8.5857930000000007
aF-8.5857480000000006
aF-8.5857480000000006
aF-8.5857119999999991
aF-8.5856759999999994
aF-8.5856580000000005
aF-8.5856580000000005
aF-8.5856580000000005
aF-8.5856490000000001
aF-8.5856490000000001
aF-8.5856490000000001
aF-8.5856490000000001
aF-8.5856490000000001
aF-8.5856399999999997
aF-8.5856399999999997
aF-8.5856399999999997
aF-8.5856399999999997
aF-8.5856399999999997
aF-8.5856309999999993
aF-8.5856309999999993
aF-8.5856309999999993
aF-8.5856309999999993
aF-8.5856220000000008
aF-8.5856220000000008
aF-8.5856130000000004
aF-8.585604
aF-8.585604
aF-8.585604
aF-8.585604
aF-8.5846769999999992
aF-8.5843980000000002
aF-8.5843260000000008
aF-8.584308
aF-8.584308
aF-8.5842720000000003
aF-8.5842449999999992
aF-8.5842270000000003
aF-8.5841999999999992
aF-8.5841729999999998
aF-8.5841639999999995
aF-8.5841460000000005
aF-8.5840110000000003
aF-8.5839569999999998
aF-8.5832999999999995
aF-8.5831920000000004
aF-8.5831739999999996
aF-8.5828229999999994
aF-8.5827419999999996
aF-8.5824990000000003
aF-8.5823280000000004
aF-8.5820489999999996
aF-8.5819589999999994
aF-8.5819320000000001
aF-8.5819320000000001
aF-8.5810949999999995
aF-8.5808339999999994
aF-8.5804919999999996
aF-8.5804290000000005
aF-8.5800509999999992
aF-8.5799160000000008
aF-8.5797629999999998
aF-8.5788810000000009
aF-8.5782240000000005
aF-8.5765860000000007
aF-8.5762260000000001
aF-8.5756949999999996
aF-8.5753350000000008
aF-8.5752539999999993
aF-8.5750650000000004
aF-8.5746330000000004
aF-8.5741650000000007
aF-8.5741110000000003
aF-8.573715
aF-8.5735980000000005
aF-8.5725899999999999
aF-8.5720229999999997
aF-8.5714740000000003
aF-8.5701689999999999
aF-8.5698360000000005
aF-8.5692599999999999
aF-8.5689089999999997
aF-8.5686389999999992
aF-8.5685579999999995
aF-8.5684590000000007
aF-8.5683600000000002
aF-8.5681709999999995
aF-8.5675139999999992
aF-8.5673069999999996
aF-8.5672350000000002
aF-8.5668570000000006
aF-8.5665689999999994
aF-8.5661369999999994
aF-8.5634549999999994
aF-8.5625730000000004
aF-8.5619969999999999
aF-8.5608719999999998
aF-8.5608719999999998
aF-8.5604130000000005
aF-8.559666
aF-8.5591530000000002
aF-8.5579920000000005
aF-8.5565339999999992
aF-8.5564710000000002
aF-8.5557599999999994
aF-8.5536720000000006
aF-8.5529700000000002
aF-8.550198
aF-8.549334
aF-8.5473719999999993
aF-8.5469849999999994
aF-8.5469760000000008
aF-8.5453109999999999
aF-8.5359599999999993
aF-8.5138110000000005
aF-8.5109670000000008
aF-8.5059450000000005
aF-8.4991319999999995
aF-8.4941910000000007
aF-8.4868109999999994
asS'lats'
p974
(lp975
F41.029055999999997
aF41.077989000000002
aF41.084622000000003
aF41.094684000000001
aF41.096412000000001
aF41.096744999999999
aF41.097357000000002
aF41.105663999999997
aF41.109552000000001
aF41.116221000000003
aF41.118983999999998
aF41.122404000000003
aF41.123168999999997
aF41.124366000000002
aF41.126111999999999
aF41.126454000000003
aF41.126742
aF41.127893999999998
aF41.129100000000001
aF41.129432999999999
aF41.129460000000002
aF41.129505000000002
aF41.129522999999999
aF41.129531999999998
aF41.129576999999998
aF41.129595000000002
aF41.129621999999998
aF41.129649000000001
aF41.130225000000003
aF41.130450000000003
aF41.131953000000003
aF41.132061
aF41.133482999999998
aF41.133861000000003
aF41.134157999999999
aF41.134545000000003
aF41.135562
aF41.135913000000002
aF41.135984999999998
aF41.136381
aF41.136947999999997
aF41.137047000000003
aF41.137272000000003
aF41.137478999999999
aF41.137506000000002
aF41.137577999999998
aF41.137613999999999
aF41.137632000000004
aF41.137686000000002
aF41.137802999999998
aF41.138784000000001
aF41.139494999999997
aF41.139702
aF41.140287000000001
aF41.140340999999999
aF41.140448999999997
aF41.140529999999998
aF41.140557000000001
aF41.140638000000003
aF41.140773000000003
aF41.140943999999998
aF41.140962000000002
aF41.141114999999999
aF41.141151000000001
aF41.141618999999999
aF41.141708999999999
aF41.14179
aF41.142311999999997
aF41.142347999999998
aF41.142392999999998
aF41.142600000000002
aF41.142636000000003
aF41.142645000000002
aF41.142671999999997
aF41.142744
aF41.142816000000003
aF41.142915000000002
aF41.143040999999997
aF41.143113
aF41.143185000000003
aF41.143203
aF41.143230000000003
aF41.143301999999998
aF41.143338
aF41.143545000000003
aF41.144094000000003
aF41.144184000000003
aF41.144193000000001
aF41.144337
aF41.144364000000003
aF41.144373000000002
aF41.144373000000002
aF41.144399999999997
aF41.144427
aF41.144444999999997
aF41.144444999999997
aF41.144454000000003
aF41.144480999999999
aF41.144634000000003
aF41.144705999999999
aF41.144787000000001
aF41.145128999999997
aF41.145147000000001
aF41.145173999999997
aF41.145228000000003
aF41.145318000000003
aF41.145344999999999
aF41.145363000000003
aF41.145408000000003
aF41.145453000000003
aF41.145488999999998
aF41.145524999999999
aF41.145524999999999
aF41.145561000000001
aF41.145614999999999
aF41.145632999999997
aF41.145696000000001
aF41.145741000000001
aF41.145786000000001
aF41.145885
aF41.145921000000001
aF41.14593
aF41.145957000000003
aF41.146047000000003
aF41.146073999999999
aF41.146082999999997
aF41.146118999999999
aF41.146155
aF41.146172999999997
aF41.1462
aF41.146227000000003
aF41.146262999999998
aF41.146298999999999
aF41.146371000000002
aF41.146380000000001
aF41.146442999999998
aF41.146650000000001
aF41.146676999999997
aF41.146704
aF41.146740000000001
aF41.146776000000003
aF41.146839
aF41.146839
aF41.146866000000003
aF41.146875000000001
aF41.146884
aF41.147019
aF41.147027999999999
aF41.147036999999997
aF41.147136000000003
aF41.147145000000002
aF41.147154
aF41.147154
aF41.147162999999999
aF41.147171999999998
aF41.147171999999998
aF41.147190000000002
aF41.147199000000001
aF41.147207999999999
aF41.147216999999998
aF41.147216999999998
aF41.147226000000003
aF41.147226000000003
aF41.147226000000003
aF41.147226000000003
aF41.147235000000002
aF41.147297999999999
aF41.147297999999999
aF41.147297999999999
aF41.147325000000002
aF41.147325000000002
aF41.147325000000002
aF41.147424000000001
aF41.147450999999997
aF41.147450999999997
aF41.147514000000001
aF41.147550000000003
aF41.147559000000001
aF41.147568
aF41.147595000000003
aF41.147640000000003
aF41.147640000000003
aF41.147649000000001
aF41.147666999999998
aF41.147685000000003
aF41.147694000000001
aF41.147720999999997
aF41.147739000000001
aF41.147775000000003
aF41.147784000000001
aF41.147784000000001
aF41.147846999999999
aF41.147874000000002
aF41.147891999999999
aF41.147900999999997
aF41.148000000000003
aF41.148018
aF41.148035999999998
aF41.148045000000003
aF41.148063
aF41.148090000000003
aF41.148116999999999
aF41.148144000000002
aF41.148206999999999
aF41.148224999999996
aF41.148296999999999
aF41.148305999999998
aF41.148333000000001
aF41.148359999999997
aF41.148369000000002
aF41.148395999999998
aF41.148522
aF41.148530999999998
aF41.148558000000001
aF41.148575999999998
aF41.148594000000003
aF41.148620999999999
aF41.148648000000001
aF41.148657
aF41.148674999999997
aF41.148702
aF41.148710999999999
aF41.148710999999999
aF41.148729000000003
aF41.148747
aF41.148755999999999
aF41.148755999999999
aF41.148755999999999
aF41.148755999999999
aF41.148764999999997
aF41.148774000000003
aF41.148774000000003
aF41.148783000000002
aF41.148783000000002
aF41.148783000000002
aF41.148783000000002
aF41.148783000000002
aF41.148783000000002
aF41.148783000000002
aF41.148783000000002
aF41.148800999999999
aF41.148800999999999
aF41.148809999999997
aF41.148819000000003
aF41.148828000000002
aF41.148828000000002
aF41.148837
aF41.148837
aF41.148837
aF41.148845999999999
aF41.148854999999998
aF41.148854999999998
aF41.148854999999998
aF41.148854999999998
aF41.148864000000003
aF41.148864000000003
aF41.148873000000002
aF41.148873000000002
aF41.148882
aF41.148882
aF41.148882
aF41.148882
aF41.148890999999999
aF41.148899999999998
aF41.148909000000003
aF41.148927
aF41.148944999999998
aF41.148963000000002
aF41.148972000000001
aF41.148980999999999
aF41.148989999999998
aF41.149044000000004
aF41.149152000000001
aF41.149242000000001
aF41.149278000000002
aF41.149304999999998
aF41.149332000000001
aF41.149529999999999
aF41.149664999999999
aF41.149763999999998
aF41.149763999999998
aF41.149827000000002
aF41.149827000000002
aF41.149881000000001
aF41.149898999999998
aF41.149908000000003
aF41.149997999999997
aF41.150042999999997
aF41.150042999999997
aF41.150421000000001
aF41.150438999999999
aF41.150438999999999
aF41.150582999999997
aF41.150655
aF41.150682000000003
aF41.150700000000001
aF41.150727000000003
aF41.150753999999999
aF41.150772000000003
aF41.150826000000002
aF41.150843999999999
aF41.150871000000002
aF41.150888999999999
aF41.150888999999999
aF41.150906999999997
aF41.150987999999998
aF41.151015000000001
aF41.151024
aF41.151077999999998
aF41.151086999999997
aF41.151141000000003
aF41.151150000000001
aF41.151474
aF41.151834000000001
aF41.151870000000002
aF41.151915000000002
aF41.151986999999998
aF41.152059000000001
aF41.152113
aF41.152149000000001
aF41.152265999999997
aF41.152275000000003
aF41.152284000000002
aF41.152374000000002
aF41.152455000000003
aF41.152455000000003
aF41.152490999999998
aF41.152500000000003
aF41.152563000000001
aF41.152571999999999
aF41.152571999999999
aF41.152580999999998
aF41.152634999999997
aF41.152670999999998
aF41.152670999999998
aF41.152670999999998
aF41.152698000000001
aF41.152706999999999
aF41.152715999999998
aF41.152715999999998
aF41.152734000000002
aF41.152769999999997
aF41.152769999999997
aF41.152779000000002
aF41.152788000000001
aF41.152968000000001
aF41.152994999999997
aF41.153022
aF41.153022
aF41.153319000000003
aF41.153345999999999
aF41.153418000000002
aF41.153435999999999
aF41.153534999999998
aF41.153562000000001
aF41.153588999999997
aF41.153669999999998
aF41.153723999999997
aF41.153733000000003
aF41.153768999999997
aF41.153768999999997
aF41.153858999999997
aF41.153886
aF41.153939999999999
aF41.154012000000002
aF41.154218999999998
aF41.154237000000002
aF41.154254999999999
aF41.154263999999998
aF41.154299999999999
aF41.154308999999998
aF41.154362999999996
aF41.154426000000001
aF41.154452999999997
aF41.154488999999998
aF41.154507000000002
aF41.154516000000001
aF41.154533999999998
aF41.15457
aF41.154615
aF41.154623999999998
aF41.154632999999997
aF41.154732000000003
aF41.154767999999997
aF41.154795
aF41.154822000000003
aF41.154966000000002
aF41.154983999999999
aF41.155092000000003
aF41.155101000000002
aF41.155118999999999
aF41.155191000000002
aF41.155361999999997
aF41.155515000000001
aF41.155560000000001
aF41.155622999999999
aF41.155731000000003
aF41.155776000000003
aF41.155794
aF41.155811999999997
aF41.155821000000003
aF41.155821000000003
aF41.155875000000002
aF41.155920000000002
aF41.155946999999998
aF41.155982999999999
aF41.156072999999999
aF41.156261999999998
aF41.156289000000001
aF41.156289000000001
aF41.156433
aF41.156478
aF41.156514000000001
aF41.156675999999997
aF41.156694000000002
aF41.156981999999999
aF41.157018000000001
aF41.157035999999998
aF41.157035999999998
aF41.157089999999997
aF41.157125999999998
aF41.157125999999998
aF41.157134999999997
aF41.157144000000002
aF41.157170999999998
aF41.157207
aF41.157215999999998
aF41.157269999999997
aF41.157342
aF41.157350999999998
aF41.157350999999998
aF41.157359999999997
aF41.157359999999997
aF41.157369000000003
aF41.157378000000001
aF41.157404999999997
aF41.157522
aF41.157539999999997
aF41.157575999999999
aF41.157594000000003
aF41.157603000000002
aF41.157719999999998
aF41.157774000000003
aF41.157783000000002
aF41.157899999999998
aF41.157918000000002
aF41.157944999999998
aF41.157963000000002
aF41.157989999999998
aF41.158008000000002
aF41.158053000000002
aF41.158098000000003
aF41.158152000000001
aF41.158259999999999
aF41.158278000000003
aF41.158341
aF41.158368000000003
aF41.158394999999999
aF41.158484999999999
aF41.158493999999997
aF41.158557000000002
aF41.158583999999998
aF41.158638000000003
aF41.158647000000002
aF41.158664999999999
aF41.158673999999998
aF41.158692000000002
aF41.158791000000001
aF41.158844999999999
aF41.158862999999997
aF41.15889
aF41.159016000000001
aF41.159025
aF41.159033999999998
aF41.159052000000003
aF41.159106000000001
aF41.159142000000003
aF41.15916
aF41.159168999999999
aF41.159213999999999
aF41.159213999999999
aF41.159222999999997
aF41.159348999999999
aF41.159367000000003
aF41.159367000000003
aF41.159376000000002
aF41.159393999999999
aF41.159457000000003
aF41.159483999999999
aF41.159492999999998
aF41.159582999999998
aF41.159610000000001
aF41.159627999999998
aF41.159691000000002
aF41.159726999999997
aF41.159996999999997
aF41.160015000000001
aF41.160024
aF41.160086999999997
aF41.160096000000003
aF41.160141000000003
aF41.160212999999999
aF41.160221999999997
aF41.160285000000002
aF41.160285000000002
aF41.160294
aF41.160302999999999
aF41.160330000000002
aF41.160347999999999
aF41.160347999999999
aF41.160356999999998
aF41.160356999999998
aF41.160375000000002
aF41.160392999999999
aF41.160708
aF41.160716999999998
aF41.160744000000001
aF41.160851999999998
aF41.160870000000003
aF41.160879000000001
aF41.160888
aF41.160924000000001
aF41.160978
aF41.161014000000002
aF41.161031999999999
aF41.161050000000003
aF41.161085999999997
aF41.161140000000003
aF41.161175999999998
aF41.161185000000003
aF41.161194000000002
aF41.161230000000003
aF41.161239000000002
aF41.161284000000002
aF41.161329000000002
aF41.161338000000001
aF41.161391999999999
aF41.161535999999998
aF41.161554000000002
aF41.161554000000002
aF41.161563000000001
aF41.161572
aF41.161608000000001
aF41.161634999999997
aF41.161752
aF41.161769999999997
aF41.161833000000001
aF41.161869000000003
aF41.161895999999999
aF41.161994999999997
aF41.162013000000002
aF41.162084999999998
aF41.162103000000002
aF41.162165999999999
aF41.162264999999998
aF41.162273999999996
aF41.162283000000002
aF41.162283000000002
aF41.162309999999998
aF41.162337000000001
aF41.162382000000001
aF41.162399999999998
aF41.162436
aF41.162489999999998
aF41.162543999999997
aF41.162607000000001
aF41.162678999999997
aF41.162723999999997
aF41.162733000000003
aF41.162759999999999
aF41.162778000000003
aF41.162849999999999
aF41.162849999999999
aF41.162967000000002
aF41.162967000000002
aF41.163057000000002
aF41.163147000000002
aF41.163192000000002
aF41.163201000000001
aF41.163237000000002
aF41.163308999999998
aF41.163317999999997
aF41.163327000000002
aF41.163362999999997
aF41.163417000000003
aF41.163426000000001
aF41.163488999999998
aF41.16366
aF41.163668999999999
aF41.163677999999997
aF41.163741000000002
aF41.163876000000002
aF41.163966000000002
aF41.164101000000002
aF41.164146000000002
aF41.164146000000002
aF41.164155000000001
aF41.164155000000001
aF41.164155000000001
aF41.164209
aF41.164209
aF41.164209
aF41.164209
aF41.164217999999998
aF41.164217999999998
aF41.164217999999998
aF41.164262999999998
aF41.164290000000001
aF41.164316999999997
aF41.164461000000003
aF41.164487999999999
aF41.164506000000003
aF41.164577999999999
aF41.164586999999997
aF41.164596000000003
aF41.164667999999999
aF41.164676999999998
aF41.164695000000002
aF41.164721999999998
aF41.164740000000002
aF41.164794000000001
aF41.164830000000002
aF41.164856999999998
aF41.164875000000002
aF41.164884000000001
aF41.164892999999999
aF41.164974000000001
aF41.164982999999999
aF41.165109000000001
aF41.165280000000003
aF41.165343
aF41.165469000000002
aF41.165613
aF41.165928000000001
aF41.165937
aF41.165990999999998
aF41.165999999999997
aF41.166044999999997
aF41.166089999999997
aF41.166215999999999
aF41.166432
aF41.166594000000003
aF41.166693000000002
aF41.166773999999997
aF41.166809999999998
aF41.166846
aF41.166863999999997
aF41.166882000000001
aF41.166891
aF41.166899999999998
aF41.166899999999998
aF41.167124999999999
aF41.167313999999998
aF41.167368000000003
aF41.167763999999998
aF41.167817999999997
aF41.167898999999998
aF41.167943999999999
aF41.168025
aF41.168025
aF41.168187000000003
aF41.168232000000003
aF41.168295000000001
aF41.168357999999998
aF41.168483999999999
aF41.168591999999997
aF41.168799
aF41.168880000000001
aF41.168934
aF41.169006000000003
aF41.169141000000003
aF41.169257999999999
aF41.169266999999998
aF41.169375000000002
aF41.169401999999998
aF41.169483
aF41.169671999999998
aF41.169690000000003
aF41.169789000000002
aF41.169950999999998
aF41.169978
aF41.170005000000003
aF41.170031999999999
aF41.170059000000002
aF41.170599000000003
aF41.170670999999999
aF41.170670999999999
aF41.170797
aF41.170968000000002
aF41.171165999999999
aF41.171283000000003
aF41.171301
aF41.171309999999998
aF41.171309999999998
aF41.171363999999997
aF41.171508000000003
aF41.171714999999999
aF41.172111000000001
aF41.172201000000001
aF41.172516000000002
aF41.172677999999998
aF41.172831000000002
aF41.172956999999997
aF41.173181999999997
aF41.173299
aF41.173397999999999
aF41.173461000000003
aF41.173506000000003
aF41.173515000000002
aF41.173785000000002
aF41.174019000000001
aF41.174045999999997
aF41.174514000000002
aF41.174568000000001
aF41.174945999999998
aF41.175089999999997
aF41.175089999999997
aF41.175117
aF41.175189000000003
aF41.175638999999997
aF41.175638999999997
aF41.175638999999997
aF41.175693000000003
aF41.176152000000002
aF41.176296000000001
aF41.176485
aF41.17662
aF41.176647000000003
aF41.176718999999999
aF41.176907999999997
aF41.177213999999999
aF41.177213999999999
aF41.177222999999998
aF41.177303999999999
aF41.177646000000003
aF41.177646000000003
aF41.177762999999999
aF41.177790000000002
aF41.177880000000002
aF41.177934
aF41.177970000000002
aF41.178086999999998
aF41.178365999999997
aF41.178420000000003
aF41.178429000000001
aF41.178600000000003
aF41.178654000000002
aF41.178753
aF41.178770999999998
aF41.178888000000001
aF41.179068000000001
aF41.179104000000002
aF41.179175999999998
aF41.179194000000003
aF41.179248000000001
aF41.179383000000001
aF41.179544999999997
aF41.179580999999999
aF41.179580999999999
aF41.179589999999997
aF41.179599000000003
aF41.179608000000002
aF41.179634999999998
aF41.179644000000003
aF41.179698000000002
aF41.179698000000002
aF41.179769999999998
aF41.179769999999998
aF41.179850999999999
aF41.179940999999999
aF41.180084999999998
aF41.180264999999999
aF41.180283000000003
aF41.180382000000002
aF41.180472000000002
aF41.180543999999998
aF41.180588999999998
aF41.180616000000001
aF41.180678999999998
aF41.180723999999998
aF41.180751000000001
aF41.180867999999997
aF41.180948999999998
aF41.180976000000001
aF41.18112
aF41.181263999999999
aF41.181362999999997
aF41.181426000000002
aF41.181525000000001
aF41.181713999999999
aF41.181722999999998
aF41.181750000000001
aF41.181759
aF41.181767999999998
aF41.181812999999998
aF41.181885000000001
aF41.182056000000003
aF41.182181999999997
aF41.182406999999998
aF41.182532999999999
aF41.182560000000002
aF41.182586999999998
aF41.182605000000002
aF41.182676999999998
aF41.182758
aF41.182803
aF41.182865999999997
aF41.182884000000001
aF41.182920000000003
aF41.183154000000002
aF41.183289000000002
aF41.183982
aF41.184080999999999
aF41.184189000000003
aF41.184548999999997
aF41.184728999999997
aF41.184764999999999
aF41.184783000000003
aF41.184809999999999
aF41.185277999999997
aF41.185358999999998
aF41.185502999999997
aF41.185647000000003
aF41.185692000000003
aF41.185701000000002
aF41.185881000000002
aF41.185971000000002
aF41.186186999999997
aF41.186511000000003
aF41.186556000000003
aF41.187033
aF41.187213
aF41.187401999999999
aF41.187401999999999
aF41.187815999999998
aF41.187879000000002
aF41.188203000000001
aF41.188428000000002
aF41.188572000000001
aF41.188608000000002
aF41.188670999999999
aF41.189498999999998
aF41.189498999999998
aF41.189723999999998
aF41.189877000000003
aF41.190156000000002
aF41.190381000000002
aF41.190407999999998
aF41.190606000000002
aF41.190939
aF41.190984
aF41.191056000000003
aF41.191451999999998
aF41.193314999999998
aF41.193917999999996
aF41.195151000000003
aF41.195475000000002
aF41.196734999999997
aF41.197409999999998
aF41.198354999999999
aF41.199686999999997
aF41.199866999999998
aF41.200344000000001
aF41.200785000000003
aF41.201360999999999
aF41.203187999999997
aF41.204943
aF41.208444
aF41.209136999999998
aF41.211306
aF41.211359999999999
aF41.211576000000001
aF41.213690999999997
aF41.216931000000002
aF41.218038
aF41.219037
aF41.221088999999999
aF41.222195999999997
aF41.231907
aF41.232275999999999
aF41.232590999999999
aF41.234211000000002
aF41.234841000000003
aF41.235335999999997
aF41.235570000000003
aF41.235650999999997
aF41.236164000000002
aF41.236289999999997
aF41.236289999999997
aF41.236415999999998
aF41.236424999999997
aF41.236434000000003
aF41.236488000000001
aF41.236533000000001
aF41.236542
aF41.236550999999999
aF41.236550999999999
aF41.236559999999997
aF41.236578000000002
aF41.236595999999999
aF41.236632
aF41.236640999999999
aF41.236659000000003
aF41.236713000000002
aF41.236784999999998
aF41.236812
aF41.236820999999999
aF41.236829999999998
aF41.236839000000003
aF41.236848000000002
aF41.236865999999999
aF41.236874999999998
aF41.236874999999998
aF41.236884000000003
aF41.236893000000002
aF41.236893000000002
aF41.236902000000001
aF41.236902000000001
aF41.236929000000003
aF41.236938000000002
aF41.236964999999998
aF41.236992000000001
aF41.237000999999999
aF41.237037000000001
aF41.237045999999999
aF41.237054999999998
aF41.237082000000001
aF41.237082000000001
aF41.237090999999999
aF41.237090999999999
aF41.237099999999998
aF41.237099999999998
aF41.237118000000002
aF41.237118000000002
aF41.237118000000002
aF41.237127000000001
aF41.237127000000001
aF41.237127000000001
aF41.237136
aF41.237144999999998
aF41.237189999999998
aF41.237189999999998
aF41.237198999999997
aF41.237208000000003
aF41.237208000000003
aF41.237234999999998
aF41.237271
aF41.237307000000001
aF41.237352000000001
aF41.237388000000003
aF41.237406
aF41.237414999999999
aF41.237423999999997
aF41.237433000000003
aF41.237459999999999
aF41.237478000000003
aF41.237478000000003
aF41.237478000000003
aF41.237478000000003
aF41.237487000000002
aF41.237487000000002
aF41.237487000000002
aF41.237496
aF41.237513999999997
aF41.237523000000003
aF41.237523000000003
aF41.237523000000003
aF41.237532000000002
aF41.237532000000002
aF41.237541
aF41.237541
aF41.237541
aF41.237549999999999
aF41.237558999999997
aF41.237577000000002
aF41.237594999999999
aF41.237613000000003
aF41.237613000000003
aF41.237639999999999
aF41.237648999999998
aF41.237648999999998
aF41.237693999999998
aF41.237693999999998
aF41.237712000000002
aF41.237918999999998
aF41.237937000000002
aF41.238242999999997
aF41.238261000000001
aF41.238495
aF41.238657000000003
aF41.239584000000001
aF41.239620000000002
aF41.247152999999997
aF41.252552999999999
aF41.254209000000003
aF41.256827999999999
aF41.258204999999997
aF41.259284999999998
asb.